
correlate:     file format elf32-littlearm


Disassembly of section .interp:

00008134 <.interp>:
    8134:	62696c2f 	rsbvs	r6, r9, #12032	; 0x2f00
    8138:	2d646c2f 	stclcs	12, cr6, [r4, #-188]!	; 0xffffff44
    813c:	756e696c 	strbvc	r6, [lr, #-2412]!	; 0x96c
    8140:	72612d78 	rsbvc	r2, r1, #120, 26	; 0x1e00
    8144:	2e66686d 	cdpcs	8, 6, cr6, cr6, cr13, {3}
    8148:	332e6f73 	teqcc	lr, #460	; 0x1cc
	...

Disassembly of section .note.ABI-tag:

00008150 <.note.ABI-tag>:
    8150:	00000004 	andeq	r0, r0, r4
    8154:	00000010 	andeq	r0, r0, r0, lsl r0
    8158:	00000001 	andeq	r0, r0, r1
    815c:	00554e47 	subseq	r4, r5, r7, asr #28
    8160:	00000000 	andeq	r0, r0, r0
    8164:	00000003 	andeq	r0, r0, r3
    8168:	00000001 	andeq	r0, r0, r1
    816c:	00000001 	andeq	r0, r0, r1

Disassembly of section .note.gnu.build-id:

00008170 <.note.gnu.build-id>:
    8170:	00000004 	andeq	r0, r0, r4
    8174:	00000014 	andeq	r0, r0, r4, lsl r0
    8178:	00000003 	andeq	r0, r0, r3
    817c:	00554e47 	subseq	r4, r5, r7, asr #28
    8180:	c575911e 	ldrbgt	r9, [r5, #-286]!	; 0x11e
    8184:	80ccacd7 	ldrdhi	sl, [ip], #199	; 0xc7
    8188:	7dab936d 	stcvc	3, cr9, [fp, #436]!	; 0x1b4
    818c:	08d52872 	ldmeq	r5, {r1, r4, r5, r6, fp, sp}^
    8190:	5fa64e35 	svcpl	0x00a64e35

Disassembly of section .hash:

00008194 <.hash>:
    8194:	00000011 	andeq	r0, r0, r1, lsl r0
    8198:	0000001a 	andeq	r0, r0, sl, lsl r0
    819c:	00000000 	andeq	r0, r0, r0
    81a0:	0000000d 	andeq	r0, r0, sp
    81a4:	00000000 	andeq	r0, r0, r0
    81a8:	00000018 	andeq	r0, r0, r8, lsl r0
    81ac:	00000008 	andeq	r0, r0, r8
    81b0:	00000013 	andeq	r0, r0, r3, lsl r0
    81b4:	00000007 	andeq	r0, r0, r7
    81b8:	00000011 	andeq	r0, r0, r1, lsl r0
    81bc:	00000006 	andeq	r0, r0, r6
    81c0:	00000015 	andeq	r0, r0, r5, lsl r0
    81c4:	00000019 	andeq	r0, r0, r9, lsl r0
    81c8:	00000000 	andeq	r0, r0, r0
    81cc:	00000002 	andeq	r0, r0, r2
    81d0:	00000000 	andeq	r0, r0, r0
    81d4:	00000010 	andeq	r0, r0, r0, lsl r0
    81d8:	0000000e 	andeq	r0, r0, lr
	...
    81f0:	00000003 	andeq	r0, r0, r3
	...
    81fc:	00000001 	andeq	r0, r0, r1
    8200:	00000000 	andeq	r0, r0, r0
    8204:	00000005 	andeq	r0, r0, r5
    8208:	00000000 	andeq	r0, r0, r0
    820c:	00000004 	andeq	r0, r0, r4
	...
    8218:	0000000a 	andeq	r0, r0, sl
	...
    8224:	00000009 	andeq	r0, r0, r9
    8228:	0000000f 	andeq	r0, r0, pc
    822c:	00000000 	andeq	r0, r0, r0
    8230:	00000012 	andeq	r0, r0, r2, lsl r0
    8234:	0000000c 	andeq	r0, r0, ip
    8238:	00000014 	andeq	r0, r0, r4, lsl r0
    823c:	0000000b 	andeq	r0, r0, fp
    8240:	00000016 	andeq	r0, r0, r6, lsl r0
    8244:	00000017 	andeq	r0, r0, r7, lsl r0

Disassembly of section .dynsym:

00008248 <.dynsym>:
	...
    8258:	000000b5 	strheq	r0, [r0], -r5
    825c:	00008628 	andeq	r8, r0, r8, lsr #12
    8260:	00000000 	andeq	r0, r0, r0
    8264:	00000012 	andeq	r0, r0, r2, lsl r0
    8268:	0000000b 	andeq	r0, r0, fp
	...
    8274:	00000020 	andeq	r0, r0, r0, lsr #32
    8278:	000000c3 	andeq	r0, r0, r3, asr #1
    827c:	00008634 	andeq	r8, r0, r4, lsr r6
    8280:	00000000 	andeq	r0, r0, r0
    8284:	00000012 	andeq	r0, r0, r2, lsl r0
    8288:	0000007e 	andeq	r0, r0, lr, ror r0
    828c:	00008640 	andeq	r8, r0, r0, asr #12
    8290:	00000000 	andeq	r0, r0, r0
    8294:	00000012 	andeq	r0, r0, r2, lsl r0
    8298:	000000a2 	andeq	r0, r0, r2, lsr #1
    829c:	0000864c 	andeq	r8, r0, ip, asr #12
    82a0:	00000000 	andeq	r0, r0, r0
    82a4:	00000012 	andeq	r0, r0, r2, lsl r0
    82a8:	000000a7 	andeq	r0, r0, r7, lsr #1
    82ac:	00008658 	andeq	r8, r0, r8, asr r6
    82b0:	00000000 	andeq	r0, r0, r0
    82b4:	00000012 	andeq	r0, r0, r2, lsl r0
    82b8:	00000068 	andeq	r0, r0, r8, rrx
    82bc:	00008664 	andeq	r8, r0, r4, ror #12
    82c0:	00000000 	andeq	r0, r0, r0
    82c4:	00000012 	andeq	r0, r0, r2, lsl r0
    82c8:	00000084 	andeq	r0, r0, r4, lsl #1
    82cc:	00008670 	andeq	r8, r0, r0, ror r6
    82d0:	00000000 	andeq	r0, r0, r0
    82d4:	00000012 	andeq	r0, r0, r2, lsl r0
    82d8:	000000d8 	ldrdeq	r0, [r0], -r8
    82dc:	0000867c 	andeq	r8, r0, ip, ror r6
    82e0:	00000000 	andeq	r0, r0, r0
    82e4:	00000012 	andeq	r0, r0, r2, lsl r0
    82e8:	00000027 	andeq	r0, r0, r7, lsr #32
	...
    82f4:	00000020 	andeq	r0, r0, r0, lsr #32
    82f8:	0000007f 	andeq	r0, r0, pc, ror r0
    82fc:	00008694 	muleq	r0, r4, r6
    8300:	00000000 	andeq	r0, r0, r0
    8304:	00000012 	andeq	r0, r0, r2, lsl r0
    8308:	000000d0 	ldrdeq	r0, [r0], -r0	; <UNPREDICTABLE>
    830c:	000086a0 	andeq	r8, r0, r0, lsr #13
    8310:	00000000 	andeq	r0, r0, r0
    8314:	00000012 	andeq	r0, r0, r2, lsl r0
    8318:	00000064 	andeq	r0, r0, r4, rrx
    831c:	000086ac 	andeq	r8, r0, ip, lsr #13
    8320:	00000000 	andeq	r0, r0, r0
    8324:	00000012 	andeq	r0, r0, r2, lsl r0
    8328:	0000009d 	muleq	r0, sp, r0
    832c:	000086b8 			; <UNDEFINED> instruction: 0x000086b8
    8330:	00000000 	andeq	r0, r0, r0
    8334:	00000012 	andeq	r0, r0, r2, lsl r0
    8338:	00000078 	andeq	r0, r0, r8, ror r0
    833c:	000086c4 	andeq	r8, r0, r4, asr #13
    8340:	00000000 	andeq	r0, r0, r0
    8344:	00000012 	andeq	r0, r0, r2, lsl r0
    8348:	000000c2 	andeq	r0, r0, r2, asr #1
    834c:	000086d0 	ldrdeq	r8, [r0], -r0
    8350:	00000000 	andeq	r0, r0, r0
    8354:	00000012 	andeq	r0, r0, r2, lsl r0
    8358:	00000079 	andeq	r0, r0, r9, ror r0
    835c:	000086dc 	ldrdeq	r8, [r0], -ip
    8360:	00000000 	andeq	r0, r0, r0
    8364:	00000012 	andeq	r0, r0, r2, lsl r0
    8368:	000000ae 	andeq	r0, r0, lr, lsr #1
    836c:	000086ec 	andeq	r8, r0, ip, ror #13
    8370:	00000000 	andeq	r0, r0, r0
    8374:	00000012 	andeq	r0, r0, r2, lsl r0
    8378:	000000bb 	strheq	r0, [r0], -fp
    837c:	000086f8 	strdeq	r8, [r0], -r8	; <UNPREDICTABLE>
    8380:	00000000 	andeq	r0, r0, r0
    8384:	00000012 	andeq	r0, r0, r2, lsl r0
    8388:	00000036 	andeq	r0, r0, r6, lsr r0
	...
    8394:	00000020 	andeq	r0, r0, r0, lsr #32
    8398:	000000ca 	andeq	r0, r0, sl, asr #1
    839c:	00008704 	andeq	r8, r0, r4, lsl #14
    83a0:	00000000 	andeq	r0, r0, r0
    83a4:	00000012 	andeq	r0, r0, r2, lsl r0
    83a8:	0000004a 	andeq	r0, r0, sl, asr #32
	...
    83b4:	00000020 	andeq	r0, r0, r0, lsr #32
    83b8:	00000089 	andeq	r0, r0, r9, lsl #1
    83bc:	00008710 	andeq	r8, r0, r0, lsl r7
    83c0:	00000000 	andeq	r0, r0, r0
    83c4:	00000012 	andeq	r0, r0, r2, lsl r0
    83c8:	000000af 	andeq	r0, r0, pc, lsr #1
    83cc:	00008720 	andeq	r8, r0, r0, lsr #14
    83d0:	00000000 	andeq	r0, r0, r0
    83d4:	00000012 	andeq	r0, r0, r2, lsl r0
    83d8:	0000008f 	andeq	r0, r0, pc, lsl #1
    83dc:	0000872c 	andeq	r8, r0, ip, lsr #14
    83e0:	00000000 	andeq	r0, r0, r0
    83e4:	00000012 	andeq	r0, r0, r2, lsl r0

Disassembly of section .dynstr:

000083e8 <.dynstr>:
    83e8:	62696c00 	rsbvs	r6, r9, #0, 24
    83ec:	6f732e6d 	svcvs	0x00732e6d
    83f0:	5f00362e 	svcpl	0x0000362e
    83f4:	5f4d5449 	svcpl	0x004d5449
    83f8:	65726564 	ldrbvs	r6, [r2, #-1380]!	; 0x564
    83fc:	74736967 	ldrbtvc	r6, [r3], #-2407	; 0x967
    8400:	4d547265 	lfmmi	f7, 2, [r4, #-404]	; 0xfffffe6c
    8404:	6e6f6c43 	cdpvs	12, 6, cr6, cr15, cr3, {2}
    8408:	62615465 	rsbvs	r5, r1, #1694498816	; 0x65000000
    840c:	5f00656c 	svcpl	0x0000656c
    8410:	6f6d675f 	svcvs	0x006d675f
    8414:	74735f6e 	ldrbtvc	r5, [r3], #-3950	; 0xf6e
    8418:	5f747261 	svcpl	0x00747261
    841c:	4a5f005f 	bmi	17c85a0 <__bss_end__+0x17b6308>
    8420:	65525f76 	ldrbvs	r5, [r2, #-3958]	; 0xf76
    8424:	74736967 	ldrbtvc	r6, [r3], #-2407	; 0x967
    8428:	6c437265 	sfmvs	f7, 2, [r3], {101}	; 0x65
    842c:	65737361 	ldrbvs	r7, [r3, #-865]!	; 0x361
    8430:	495f0073 	ldmdbmi	pc, {r0, r1, r4, r5, r6}^	; <UNPREDICTABLE>
    8434:	725f4d54 	subsvc	r4, pc, #84, 26	; 0x1500
    8438:	73696765 	cmnvc	r9, #26476544	; 0x1940000
    843c:	54726574 	ldrbtpl	r6, [r2], #-1396	; 0x574
    8440:	6f6c434d 	svcvs	0x006c434d
    8444:	6154656e 	cmpvs	r4, lr, ror #10
    8448:	00656c62 	rsbeq	r6, r5, r2, ror #24
    844c:	006e6973 	rsbeq	r6, lr, r3, ror r9
    8450:	6f6f6c66 	svcvs	0x006f6c66
    8454:	696c0072 	stmdbvs	ip!, {r1, r4, r5, r6}^
    8458:	732e6362 	teqvc	lr, #-2013265919	; 0x88000001
    845c:	00362e6f 	eorseq	r2, r6, pc, ror #28
    8460:	6e617273 	mcrvs	2, 3, r7, cr1, cr3, {3}
    8464:	6f660064 	svcvs	0x00660064
    8468:	006e6570 	rsbeq	r6, lr, r0, ror r5
    846c:	73747570 	cmnvc	r4, #112, 10	; 0x1c000000
    8470:	6f626100 	svcvs	0x00626100
    8474:	5f007472 	svcpl	0x00007472
    8478:	7373615f 	cmnvc	r3, #-1073741801	; 0xc0000017
    847c:	5f747265 	svcpl	0x00747265
    8480:	6c696166 	stfvse	f6, [r9], #-408	; 0xfffffe68
    8484:	616d6d00 	cmnvs	sp, r0, lsl #26
    8488:	65720070 	ldrbvs	r0, [r2, #-112]!	; 0x70
    848c:	6d006461 	cfstrsvs	mvf6, [r0, #-388]	; 0xfffffe7c
    8490:	70636d65 	rsbvc	r6, r3, r5, ror #26
    8494:	63660079 	cmnvs	r6, #121	; 0x79
    8498:	65736f6c 	ldrbvs	r6, [r3, #-3948]!	; 0xf6c
    849c:	69617200 	stmdbvs	r1!, {r9, ip, sp, lr}^
    84a0:	6d006573 	cfstr32vs	mvfx6, [r0, #-460]	; 0xfffffe34
    84a4:	616d6e75 	smcvs	55013	; 0xd6e5
    84a8:	70660070 	rsbvc	r0, r6, r0, ror r0
    84ac:	746e6972 	strbtvc	r6, [lr], #-2418	; 0x972
    84b0:	73710066 	cmnvc	r1, #102	; 0x66
    84b4:	0074726f 	rsbseq	r7, r4, pc, ror #4
    84b8:	63737973 	cmnvs	r3, #1884160	; 0x1cc000
    84bc:	006c6c61 	rsbeq	r6, ip, r1, ror #24
    84c0:	696c5f5f 	stmdbvs	ip!, {r0, r1, r2, r3, r4, r6, r8, r9, sl, fp, ip, lr}^
    84c4:	735f6362 	cmpvc	pc, #-2013265919	; 0x88000001
    84c8:	74726174 	ldrbtvc	r6, [r2], #-372	; 0x174
    84cc:	69616d5f 	stmdbvs	r1!, {r0, r1, r2, r3, r4, r6, r8, sl, fp, sp, lr}^
    84d0:	4c47006e 	mcrrmi	0, 6, r0, r7, cr14
    84d4:	5f434249 	svcpl	0x00434249
    84d8:	00342e32 	eorseq	r2, r4, r2, lsr lr

Disassembly of section .gnu.version:

000084dc <.gnu.version>:
    84dc:	00020000 	andeq	r0, r2, r0
    84e0:	00020000 	andeq	r0, r2, r0
    84e4:	00020002 	andeq	r0, r2, r2
    84e8:	00030002 	andeq	r0, r3, r2
    84ec:	00020002 	andeq	r0, r2, r2
    84f0:	00020000 	andeq	r0, r2, r0
    84f4:	00030002 	andeq	r0, r3, r2
    84f8:	00020002 	andeq	r0, r2, r2
    84fc:	00020002 	andeq	r0, r2, r2
    8500:	00020002 	andeq	r0, r2, r2
    8504:	00020000 	andeq	r0, r2, r0
    8508:	00020000 	andeq	r0, r2, r0
    850c:	00020002 	andeq	r0, r2, r2

Disassembly of section .gnu.version_r:

00008510 <.gnu.version_r>:
    8510:	00010001 	andeq	r0, r1, r1
    8514:	00000001 	andeq	r0, r0, r1
    8518:	00000010 	andeq	r0, r0, r0, lsl r0
    851c:	00000020 	andeq	r0, r0, r0, lsr #32
    8520:	0d696914 	stcleq	9, cr6, [r9, #-80]!	; 0xffffffb0
    8524:	00030000 	andeq	r0, r3, r0
    8528:	000000ea 	andeq	r0, r0, sl, ror #1
    852c:	00000000 	andeq	r0, r0, r0
    8530:	00010001 	andeq	r0, r1, r1
    8534:	0000006e 	andeq	r0, r0, lr, rrx
    8538:	00000010 	andeq	r0, r0, r0, lsl r0
    853c:	00000000 	andeq	r0, r0, r0
    8540:	0d696914 	stcleq	9, cr6, [r9, #-80]!	; 0xffffffb0
    8544:	00020000 	andeq	r0, r2, r0
    8548:	000000ea 	andeq	r0, r0, sl, ror #1
    854c:	00000000 	andeq	r0, r0, r0

Disassembly of section .rel.dyn:

00008550 <.rel.dyn>:
    8550:	00012228 	andeq	r2, r1, r8, lsr #4
    8554:	00000a15 	andeq	r0, r0, r5, lsl sl

Disassembly of section .rel.plt:

00008558 <.rel.plt>:
    8558:	000121d0 	ldrdeq	r2, [r1], -r0
    855c:	00000116 	andeq	r0, r0, r6, lsl r1
    8560:	000121d4 	ldrdeq	r2, [r1], -r4
    8564:	00000316 	andeq	r0, r0, r6, lsl r3
    8568:	000121d8 	ldrdeq	r2, [r1], -r8
    856c:	00000416 	andeq	r0, r0, r6, lsl r4
    8570:	000121dc 	ldrdeq	r2, [r1], -ip
    8574:	00000516 	andeq	r0, r0, r6, lsl r5
    8578:	000121e0 	andeq	r2, r1, r0, ror #3
    857c:	00000616 	andeq	r0, r0, r6, lsl r6
    8580:	000121e4 	andeq	r2, r1, r4, ror #3
    8584:	00000716 	andeq	r0, r0, r6, lsl r7
    8588:	000121e8 	andeq	r2, r1, r8, ror #3
    858c:	00000816 	andeq	r0, r0, r6, lsl r8
    8590:	000121ec 	andeq	r2, r1, ip, ror #3
    8594:	00000916 	andeq	r0, r0, r6, lsl r9
    8598:	000121f0 	strdeq	r2, [r1], -r0
    859c:	00000a16 	andeq	r0, r0, r6, lsl sl
    85a0:	000121f4 	strdeq	r2, [r1], -r4
    85a4:	00000b16 	andeq	r0, r0, r6, lsl fp
    85a8:	000121f8 	strdeq	r2, [r1], -r8
    85ac:	00000c16 	andeq	r0, r0, r6, lsl ip
    85b0:	000121fc 	strdeq	r2, [r1], -ip
    85b4:	00000d16 	andeq	r0, r0, r6, lsl sp
    85b8:	00012200 	andeq	r2, r1, r0, lsl #4
    85bc:	00000e16 	andeq	r0, r0, r6, lsl lr
    85c0:	00012204 	andeq	r2, r1, r4, lsl #4
    85c4:	00000f16 	andeq	r0, r0, r6, lsl pc
    85c8:	00012208 	andeq	r2, r1, r8, lsl #4
    85cc:	00001016 	andeq	r1, r0, r6, lsl r0
    85d0:	0001220c 	andeq	r2, r1, ip, lsl #4
    85d4:	00001116 	andeq	r1, r0, r6, lsl r1
    85d8:	00012210 	andeq	r2, r1, r0, lsl r2
    85dc:	00001216 	andeq	r1, r0, r6, lsl r2
    85e0:	00012214 	andeq	r2, r1, r4, lsl r2
    85e4:	00001316 	andeq	r1, r0, r6, lsl r3
    85e8:	00012218 	andeq	r2, r1, r8, lsl r2
    85ec:	00001516 	andeq	r1, r0, r6, lsl r5
    85f0:	0001221c 	andeq	r2, r1, ip, lsl r2
    85f4:	00001716 	andeq	r1, r0, r6, lsl r7
    85f8:	00012220 	andeq	r2, r1, r0, lsr #4
    85fc:	00001816 	andeq	r1, r0, r6, lsl r8
    8600:	00012224 	andeq	r2, r1, r4, lsr #4
    8604:	00001916 	andeq	r1, r0, r6, lsl r9

Disassembly of section .init:

00008608 <_init>:
    8608:	e92d4008 	push	{r3, lr}
    860c:	eb000347 	bl	9330 <call_weak_fn>
    8610:	e8bd8008 	pop	{r3, pc}

Disassembly of section .plt:

00008614 <.plt>:
    8614:	e52de004 	push	{lr}		; (str lr, [sp, #-4]!)
    8618:	e59fe004 	ldr	lr, [pc, #4]	; 8624 <_init+0x1c>
    861c:	e08fe00e 	add	lr, pc, lr
    8620:	e5bef008 	ldr	pc, [lr, #8]!
    8624:	00009ba0 	andeq	r9, r0, r0, lsr #23
    8628:	e28fc600 	add	ip, pc, #0, 12
    862c:	e28cca09 	add	ip, ip, #36864	; 0x9000
    8630:	e5bcfba0 	ldr	pc, [ip, #2976]!	; 0xba0
    8634:	e28fc600 	add	ip, pc, #0, 12
    8638:	e28cca09 	add	ip, ip, #36864	; 0x9000
    863c:	e5bcfb98 	ldr	pc, [ip, #2968]!	; 0xb98
    8640:	e28fc600 	add	ip, pc, #0, 12
    8644:	e28cca09 	add	ip, ip, #36864	; 0x9000
    8648:	e5bcfb90 	ldr	pc, [ip, #2960]!	; 0xb90
    864c:	e28fc600 	add	ip, pc, #0, 12
    8650:	e28cca09 	add	ip, ip, #36864	; 0x9000
    8654:	e5bcfb88 	ldr	pc, [ip, #2952]!	; 0xb88
    8658:	e28fc600 	add	ip, pc, #0, 12
    865c:	e28cca09 	add	ip, ip, #36864	; 0x9000
    8660:	e5bcfb80 	ldr	pc, [ip, #2944]!	; 0xb80
    8664:	e28fc600 	add	ip, pc, #0, 12
    8668:	e28cca09 	add	ip, ip, #36864	; 0x9000
    866c:	e5bcfb78 	ldr	pc, [ip, #2936]!	; 0xb78
    8670:	e28fc600 	add	ip, pc, #0, 12
    8674:	e28cca09 	add	ip, ip, #36864	; 0x9000
    8678:	e5bcfb70 	ldr	pc, [ip, #2928]!	; 0xb70
    867c:	e28fc600 	add	ip, pc, #0, 12
    8680:	e28cca09 	add	ip, ip, #36864	; 0x9000
    8684:	e5bcfb68 	ldr	pc, [ip, #2920]!	; 0xb68
    8688:	e28fc600 	add	ip, pc, #0, 12
    868c:	e28cca09 	add	ip, ip, #36864	; 0x9000
    8690:	e5bcfb60 	ldr	pc, [ip, #2912]!	; 0xb60
    8694:	e28fc600 	add	ip, pc, #0, 12
    8698:	e28cca09 	add	ip, ip, #36864	; 0x9000
    869c:	e5bcfb58 	ldr	pc, [ip, #2904]!	; 0xb58
    86a0:	e28fc600 	add	ip, pc, #0, 12
    86a4:	e28cca09 	add	ip, ip, #36864	; 0x9000
    86a8:	e5bcfb50 	ldr	pc, [ip, #2896]!	; 0xb50
    86ac:	e28fc600 	add	ip, pc, #0, 12
    86b0:	e28cca09 	add	ip, ip, #36864	; 0x9000
    86b4:	e5bcfb48 	ldr	pc, [ip, #2888]!	; 0xb48
    86b8:	e28fc600 	add	ip, pc, #0, 12
    86bc:	e28cca09 	add	ip, ip, #36864	; 0x9000
    86c0:	e5bcfb40 	ldr	pc, [ip, #2880]!	; 0xb40
    86c4:	e28fc600 	add	ip, pc, #0, 12
    86c8:	e28cca09 	add	ip, ip, #36864	; 0x9000
    86cc:	e5bcfb38 	ldr	pc, [ip, #2872]!	; 0xb38
    86d0:	e28fc600 	add	ip, pc, #0, 12
    86d4:	e28cca09 	add	ip, ip, #36864	; 0x9000
    86d8:	e5bcfb30 	ldr	pc, [ip, #2864]!	; 0xb30
    86dc:	e28fc600 	add	ip, pc, #0, 12
    86e0:	e28cca09 	add	ip, ip, #36864	; 0x9000
    86e4:	e5bcfb28 	ldr	pc, [ip, #2856]!	; 0xb28
    86e8:	4778      	bx	pc
    86ea:	46c0      	nop			; (mov r8, r8)
    86ec:	e28fc600 	add	ip, pc, #0, 12
    86f0:	e28cca09 	add	ip, ip, #36864	; 0x9000
    86f4:	e5bcfb1c 	ldr	pc, [ip, #2844]!	; 0xb1c
    86f8:	e28fc600 	add	ip, pc, #0, 12
    86fc:	e28cca09 	add	ip, ip, #36864	; 0x9000
    8700:	e5bcfb14 	ldr	pc, [ip, #2836]!	; 0xb14
    8704:	e28fc600 	add	ip, pc, #0, 12
    8708:	e28cca09 	add	ip, ip, #36864	; 0x9000
    870c:	e5bcfb0c 	ldr	pc, [ip, #2828]!	; 0xb0c
    8710:	e28fc600 	add	ip, pc, #0, 12
    8714:	e28cca09 	add	ip, ip, #36864	; 0x9000
    8718:	e5bcfb04 	ldr	pc, [ip, #2820]!	; 0xb04
    871c:	4778      	bx	pc
    871e:	46c0      	nop			; (mov r8, r8)
    8720:	e28fc600 	add	ip, pc, #0, 12
    8724:	e28cca09 	add	ip, ip, #36864	; 0x9000
    8728:	e5bcfaf8 	ldr	pc, [ip, #2808]!	; 0xaf8
    872c:	e28fc600 	add	ip, pc, #0, 12
    8730:	e28cca09 	add	ip, ip, #36864	; 0x9000
    8734:	e5bcfaf0 	ldr	pc, [ip, #2800]!	; 0xaf0

Disassembly of section .text:

00008738 <fini>:
    8738:	f242 2334 	movw	r3, #8756	; 0x2234
    873c:	f2c0 0301 	movt	r3, #1
    8740:	6818      	ldr	r0, [r3, #0]
    8742:	f7ff bfeb 	b.w	871c <_init+0x114>
    8746:	bf00      	nop

00008748 <init>:
    8748:	b5f0      	push	{r4, r5, r6, r7, lr}
    874a:	f242 2640 	movw	r6, #8768	; 0x2240
    874e:	b083      	sub	sp, #12
    8750:	2700      	movs	r7, #0
    8752:	f2c0 0601 	movt	r6, #1
    8756:	f04f 33ff 	mov.w	r3, #4294967295
    875a:	9300      	str	r3, [sp, #0]
    875c:	2400      	movs	r4, #0
    875e:	2500      	movs	r5, #0
    8760:	4631      	mov	r1, r6
    8762:	9701      	str	r7, [sp, #4]
    8764:	463a      	mov	r2, r7
    8766:	f44f 70b6 	mov.w	r0, #364	; 0x16c
    876a:	e9c6 4502 	strd	r4, r5, [r6, #8]
    876e:	6037      	str	r7, [r6, #0]
    8770:	f7ff ef96 	blx	86a0 <_init+0x98>
    8774:	f242 2334 	movw	r3, #8756	; 0x2234
    8778:	f2c0 0301 	movt	r3, #1
    877c:	6018      	str	r0, [r3, #0]
    877e:	b003      	add	sp, #12
    8780:	bdf0      	pop	{r4, r5, r6, r7, pc}
    8782:	bf00      	nop

00008784 <main>:
    8784:	e92d 4ff0 	stmdb	sp!, {r4, r5, r6, r7, r8, r9, sl, fp, lr}
    8788:	f649 707c 	movw	r0, #40828	; 0x9f7c
    878c:	ed2d 8b10 	vpush	{d8-d15}
    8790:	f241 0102 	movw	r1, #4098	; 0x1002
    8794:	f5ad 5d16 	sub.w	sp, sp, #9600	; 0x2580
    8798:	f2c0 0000 	movt	r0, #0
    879c:	b087      	sub	sp, #28
    879e:	f2c0 0110 	movt	r1, #16
    87a2:	f7ff ef78 	blx	8694 <_init+0x8c>
    87a6:	900b      	str	r0, [sp, #44]	; 0x2c
    87a8:	3001      	adds	r0, #1
    87aa:	f000 8582 	beq.w	92b2 <main+0xb2e>
    87ae:	9c0b      	ldr	r4, [sp, #44]	; 0x2c
    87b0:	f04f 4340 	mov.w	r3, #3221225472	; 0xc0000000
    87b4:	f242 2594 	movw	r5, #8852	; 0x2294
    87b8:	9301      	str	r3, [sp, #4]
    87ba:	f2c0 0501 	movt	r5, #1
    87be:	2000      	movs	r0, #0
    87c0:	9400      	str	r4, [sp, #0]
    87c2:	f44f 3100 	mov.w	r1, #131072	; 0x20000
    87c6:	2203      	movs	r2, #3
    87c8:	2301      	movs	r3, #1
    87ca:	f7ff ef76 	blx	86b8 <_init+0xb0>
    87ce:	6028      	str	r0, [r5, #0]
    87d0:	3001      	adds	r0, #1
    87d2:	9509      	str	r5, [sp, #36]	; 0x24
    87d4:	f000 8589 	beq.w	92ea <main+0xb66>
    87d8:	f649 707c 	movw	r0, #40828	; 0x9f7c
    87dc:	f241 0102 	movw	r1, #4098	; 0x1002
    87e0:	f2c0 0000 	movt	r0, #0
    87e4:	f2c0 0110 	movt	r1, #16
    87e8:	f7ff ef54 	blx	8694 <_init+0x8c>
    87ec:	f242 2488 	movw	r4, #8840	; 0x2288
    87f0:	1c43      	adds	r3, r0, #1
    87f2:	f2c0 0401 	movt	r4, #1
    87f6:	6020      	str	r0, [r4, #0]
    87f8:	f000 856e 	beq.w	92d8 <main+0xb54>
    87fc:	f04f 437c 	mov.w	r3, #4227858432	; 0xfc000000
    8800:	f04f 6180 	mov.w	r1, #67108864	; 0x4000000
    8804:	e88d 0009 	stmia.w	sp, {r0, r3}
    8808:	2203      	movs	r2, #3
    880a:	2301      	movs	r3, #1
    880c:	2000      	movs	r0, #0
    880e:	f7ff ef54 	blx	86b8 <_init+0xb0>
    8812:	ed9f 9be5 	vldr	d9, [pc, #916]	; 8ba8 <main+0x424>
    8816:	f242 2290 	movw	r2, #8848	; 0x2290
    881a:	f242 238c 	movw	r3, #8844	; 0x228c
    881e:	ed9f dbe4 	vldr	d13, [pc, #912]	; 8bb0 <main+0x42c>
    8822:	ed9f bbe5 	vldr	d11, [pc, #916]	; 8bb8 <main+0x434>
    8826:	f2c0 0201 	movt	r2, #1
    882a:	f100 7148 	add.w	r1, r0, #52428800	; 0x3200000
    882e:	f2c0 0301 	movt	r3, #1
    8832:	f10d 0b98 	add.w	fp, sp, #152	; 0x98
    8836:	2600      	movs	r6, #0
    8838:	6010      	str	r0, [r2, #0]
    883a:	ad46      	add	r5, sp, #280	; 0x118
    883c:	6019      	str	r1, [r3, #0]
    883e:	960a      	str	r6, [sp, #40]	; 0x28
    8840:	eeb4 eb00 	vmov.f64	d14, #64	; 0x40
    8844:	f000 fdde 	bl	9404 <initrng>
    8848:	eeb7 8b00 	vmov.f64	d8, #112	; 0x70
    884c:	4658      	mov	r0, fp
    884e:	2110      	movs	r1, #16
    8850:	f000 fdee 	bl	9430 <gensin>
    8854:	ab0e      	add	r3, sp, #56	; 0x38
    8856:	4658      	mov	r0, fp
    8858:	2110      	movs	r1, #16
    885a:	2207      	movs	r2, #7
    885c:	f001 f856 	bl	990c <scalesig>
    8860:	ed9d 1a0a 	vldr	s2, [sp, #40]	; 0x28
    8864:	f04f 0900 	mov.w	r9, #0
    8868:	eeb0 ab4e 	vmov.f64	d10, d14
    886c:	f50d 6aaf 	add.w	sl, sp, #1400	; 0x578
    8870:	9e0a      	ldr	r6, [sp, #40]	; 0x28
    8872:	f8cd a014 	str.w	sl, [sp, #20]
    8876:	eeb8 7bc1 	vcvt.f64.s32	d7, s2
    887a:	03b6      	lsls	r6, r6, #14
    887c:	ee07 ab0e 	vmla.f64	d10, d7, d14
    8880:	9608      	str	r6, [sp, #32]
    8882:	ac74      	add	r4, sp, #464	; 0x1d0
    8884:	2600      	movs	r6, #0
    8886:	f7ff ef2a 	blx	86dc <_init+0xd4>
    888a:	ee01 0a10 	vmov	s2, r0
    888e:	eeb8 7bc1 	vcvt.f64.s32	d7, s2
    8892:	f894 f000 	pld	[r4]
    8896:	3420      	adds	r4, #32
    8898:	ee37 7b07 	vadd.f64	d7, d7, d7
    889c:	ee87 7b09 	vdiv.f64	d7, d7, d9
    88a0:	ee37 7b48 	vsub.f64	d7, d7, d8
    88a4:	ee27 7b0a 	vmul.f64	d7, d7, d10
    88a8:	ed04 7b16 	vstr	d7, [r4, #-88]	; 0xffffffa8
    88ac:	f7ff ef16 	blx	86dc <_init+0xd4>
    88b0:	ee01 0a90 	vmov	s3, r0
    88b4:	eeb8 7be1 	vcvt.f64.s32	d7, s3
    88b8:	ee37 7b07 	vadd.f64	d7, d7, d7
    88bc:	ee87 7b09 	vdiv.f64	d7, d7, d9
    88c0:	ee37 7b48 	vsub.f64	d7, d7, d8
    88c4:	ee27 7b0a 	vmul.f64	d7, d7, d10
    88c8:	ed04 7b14 	vstr	d7, [r4, #-80]	; 0xffffffb0
    88cc:	f7ff ef06 	blx	86dc <_init+0xd4>
    88d0:	ee02 0a10 	vmov	s4, r0
    88d4:	eeb8 7bc2 	vcvt.f64.s32	d7, s4
    88d8:	ee37 7b07 	vadd.f64	d7, d7, d7
    88dc:	ee87 7b09 	vdiv.f64	d7, d7, d9
    88e0:	ee37 7b48 	vsub.f64	d7, d7, d8
    88e4:	ee27 7b0a 	vmul.f64	d7, d7, d10
    88e8:	ed04 7b12 	vstr	d7, [r4, #-72]	; 0xffffffb8
    88ec:	f7ff eef6 	blx	86dc <_init+0xd4>
    88f0:	ee02 0a90 	vmov	s5, r0
    88f4:	1d33      	adds	r3, r6, #4
    88f6:	eeb8 7be2 	vcvt.f64.s32	d7, s5
    88fa:	2b7c      	cmp	r3, #124	; 0x7c
    88fc:	f1c6 027c 	rsb	r2, r6, #124	; 0x7c
    8900:	461e      	mov	r6, r3
    8902:	ee37 7b07 	vadd.f64	d7, d7, d7
    8906:	ee87 7b09 	vdiv.f64	d7, d7, d9
    890a:	ee37 7b48 	vsub.f64	d7, d7, d8
    890e:	ee27 7b0a 	vmul.f64	d7, d7, d10
    8912:	ed04 7b10 	vstr	d7, [r4, #-64]	; 0xffffffc0
    8916:	d1b6      	bne.n	8886 <main+0x102>
    8918:	9e05      	ldr	r6, [sp, #20]
    891a:	4614      	mov	r4, r2
    891c:	f7ff eede 	blx	86dc <_init+0xd4>
    8920:	ee04 0a10 	vmov	s8, r0
    8924:	3c01      	subs	r4, #1
    8926:	eeb8 7bc4 	vcvt.f64.s32	d7, s8
    892a:	ee37 7b07 	vadd.f64	d7, d7, d7
    892e:	ee87 7b09 	vdiv.f64	d7, d7, d9
    8932:	ee37 7b48 	vsub.f64	d7, d7, d8
    8936:	ee27 7b0a 	vmul.f64	d7, d7, d10
    893a:	eca6 7b02 	vstmia	r6!, {d7}
    893e:	d1ed      	bne.n	891c <main+0x198>
    8940:	ed9b 4b02 	vldr	d4, [fp, #8]
    8944:	aa66      	add	r2, sp, #408	; 0x198
    8946:	ed9d 6be0 	vldr	d6, [sp, #896]	; 0x380
    894a:	4611      	mov	r1, r2
    894c:	ed9b 2b06 	vldr	d2, [fp, #24]
    8950:	4613      	mov	r3, r2
    8952:	ed9b 3b04 	vldr	d3, [fp, #16]
    8956:	3318      	adds	r3, #24
    8958:	ed9d cbe4 	vldr	d12, [sp, #912]	; 0x390
    895c:	aa8c      	add	r2, sp, #560	; 0x230
    895e:	ee36 6b04 	vadd.f64	d6, d6, d4
    8962:	ed9d 4be8 	vldr	d4, [sp, #928]	; 0x3a0
    8966:	ed9b 1b0a 	vldr	d1, [fp, #40]	; 0x28
    896a:	ed9d 0be2 	vldr	d0, [sp, #904]	; 0x388
    896e:	ed9b 7b00 	vldr	d7, [fp]
    8972:	ed9b fb08 	vldr	d15, [fp, #32]
    8976:	ed9d 5bde 	vldr	d5, [sp, #888]	; 0x378
    897a:	ee34 1b01 	vadd.f64	d1, d4, d1
    897e:	ee3c cb02 	vadd.f64	d12, d12, d2
    8982:	ed9d 4bea 	vldr	d4, [sp, #936]	; 0x3a8
    8986:	ed9d 2be6 	vldr	d2, [sp, #920]	; 0x398
    898a:	ee30 0b03 	vadd.f64	d0, d0, d3
    898e:	ed9b 3b0c 	vldr	d3, [fp, #48]	; 0x30
    8992:	ee35 5b07 	vadd.f64	d5, d5, d7
    8996:	ee32 7b0f 	vadd.f64	d7, d2, d15
    899a:	ed9b fb0e 	vldr	d15, [fp, #56]	; 0x38
    899e:	ee34 2b03 	vadd.f64	d2, d4, d3
    89a2:	ed9d 4bec 	vldr	d4, [sp, #944]	; 0x3b0
    89a6:	ed8d 5bde 	vstr	d5, [sp, #888]	; 0x378
    89aa:	ed9d 5bee 	vldr	d5, [sp, #952]	; 0x3b8
    89ae:	ed8d 6be0 	vstr	d6, [sp, #896]	; 0x380
    89b2:	ee34 3b0f 	vadd.f64	d3, d4, d15
    89b6:	ed9b fb10 	vldr	d15, [fp, #64]	; 0x40
    89ba:	ed9d 6bf0 	vldr	d6, [sp, #960]	; 0x3c0
    89be:	ed8d 0be2 	vstr	d0, [sp, #904]	; 0x388
    89c2:	ed9b 0b16 	vldr	d0, [fp, #88]	; 0x58
    89c6:	ee35 4b0f 	vadd.f64	d4, d5, d15
    89ca:	ed9b fb12 	vldr	d15, [fp, #72]	; 0x48
    89ce:	ed8d 7be6 	vstr	d7, [sp, #920]	; 0x398
    89d2:	ed8d 1be8 	vstr	d1, [sp, #928]	; 0x3a0
    89d6:	ed8d 2bea 	vstr	d2, [sp, #936]	; 0x3a8
    89da:	ee36 5b0f 	vadd.f64	d5, d6, d15
    89de:	ed9d 6bf2 	vldr	d6, [sp, #968]	; 0x3c8
    89e2:	ed9b fb14 	vldr	d15, [fp, #80]	; 0x50
    89e6:	ed8d 3bec 	vstr	d3, [sp, #944]	; 0x3b0
    89ea:	ed8d cbe4 	vstr	d12, [sp, #912]	; 0x390
    89ee:	ee36 6b0f 	vadd.f64	d6, d6, d15
    89f2:	ed8d 6bf2 	vstr	d6, [sp, #968]	; 0x3c8
    89f6:	ed9d 6bf4 	vldr	d6, [sp, #976]	; 0x3d0
    89fa:	ed8d 4bee 	vstr	d4, [sp, #952]	; 0x3b8
    89fe:	ed8d 5bf0 	vstr	d5, [sp, #960]	; 0x3c0
    8a02:	ed9d 5bf6 	vldr	d5, [sp, #984]	; 0x3d8
    8a06:	ee36 7b00 	vadd.f64	d7, d6, d0
    8a0a:	ed9d 3bfa 	vldr	d3, [sp, #1000]	; 0x3e8
    8a0e:	ed9d 1bfc 	vldr	d1, [sp, #1008]	; 0x3f0
    8a12:	ed9b 6b18 	vldr	d6, [fp, #96]	; 0x60
    8a16:	ed8d 7bf4 	vstr	d7, [sp, #976]	; 0x3d0
    8a1a:	ed9b 4b1a 	vldr	d4, [fp, #104]	; 0x68
    8a1e:	ed9d 7bf8 	vldr	d7, [sp, #992]	; 0x3e0
    8a22:	ed9b 2b1c 	vldr	d2, [fp, #112]	; 0x70
    8a26:	ed9b 0b1e 	vldr	d0, [fp, #120]	; 0x78
    8a2a:	ee35 6b06 	vadd.f64	d6, d5, d6
    8a2e:	ee37 7b04 	vadd.f64	d7, d7, d4
    8a32:	ee33 3b02 	vadd.f64	d3, d3, d2
    8a36:	ee31 1b00 	vadd.f64	d1, d1, d0
    8a3a:	ed91 5b00 	vldr	d5, [r1]
    8a3e:	ed8d 6bf6 	vstr	d6, [sp, #984]	; 0x3d8
    8a42:	ed8d 7bf8 	vstr	d7, [sp, #992]	; 0x3e0
    8a46:	ed8d 3bfa 	vstr	d3, [sp, #1000]	; 0x3e8
    8a4a:	ed8d 1bfc 	vstr	d1, [sp, #1008]	; 0x3f0
    8a4e:	ed13 4b06 	vldr	d4, [r3, #-24]	; 0xffffffe8
    8a52:	1d21      	adds	r1, r4, #4
    8a54:	ed13 7b04 	vldr	d7, [r3, #-16]
    8a58:	f1c4 007c 	rsb	r0, r4, #124	; 0x7c
    8a5c:	eeb0 3bc5 	vabs.f64	d3, d5
    8a60:	460c      	mov	r4, r1
    8a62:	ed13 6b02 	vldr	d6, [r3, #-8]
    8a66:	3320      	adds	r3, #32
    8a68:	eeb0 2bc4 	vabs.f64	d2, d4
    8a6c:	eeb4 2bc3 	vcmpe.f64	d2, d3
    8a70:	eef1 fa10 	vmrs	APSR_nzcv, fpscr
    8a74:	bfc8      	it	gt
    8a76:	eeb0 5b44 	vmovgt.f64	d5, d4
    8a7a:	eeb0 4bc5 	vabs.f64	d4, d5
    8a7e:	eeb0 3bc7 	vabs.f64	d3, d7
    8a82:	eeb4 3bc4 	vcmpe.f64	d3, d4
    8a86:	eef1 fa10 	vmrs	APSR_nzcv, fpscr
    8a8a:	bfc8      	it	gt
    8a8c:	eeb0 5b47 	vmovgt.f64	d5, d7
    8a90:	eeb0 4bc5 	vabs.f64	d4, d5
    8a94:	ed12 7b20 	vldr	d7, [r2, #-128]	; 0xffffff80
    8a98:	eeb0 3bc6 	vabs.f64	d3, d6
    8a9c:	eeb4 3bc4 	vcmpe.f64	d3, d4
    8aa0:	eef1 fa10 	vmrs	APSR_nzcv, fpscr
    8aa4:	bfc8      	it	gt
    8aa6:	eeb0 5b46 	vmovgt.f64	d5, d6
    8aaa:	eeb0 6bc5 	vabs.f64	d6, d5
    8aae:	eeb0 4bc7 	vabs.f64	d4, d7
    8ab2:	eeb4 4bc6 	vcmpe.f64	d4, d6
    8ab6:	eef1 fa10 	vmrs	APSR_nzcv, fpscr
    8aba:	bfc8      	it	gt
    8abc:	eeb0 5b47 	vmovgt.f64	d5, d7
    8ac0:	297c      	cmp	r1, #124	; 0x7c
    8ac2:	f892 f000 	pld	[r2]
    8ac6:	f102 0220 	add.w	r2, r2, #32
    8aca:	d1c0      	bne.n	8a4e <main+0x2ca>
    8acc:	f100 027c 	add.w	r2, r0, #124	; 0x7c
    8ad0:	ac66      	add	r4, sp, #408	; 0x198
    8ad2:	9b05      	ldr	r3, [sp, #20]
    8ad4:	eb04 02c2 	add.w	r2, r4, r2, lsl #3
    8ad8:	ecb3 7b02 	vldmia	r3!, {d7}
    8adc:	eeb0 6bc5 	vabs.f64	d6, d5
    8ae0:	eeb0 4bc7 	vabs.f64	d4, d7
    8ae4:	eeb4 4bc6 	vcmpe.f64	d4, d6
    8ae8:	eef1 fa10 	vmrs	APSR_nzcv, fpscr
    8aec:	bfc8      	it	gt
    8aee:	eeb0 5b47 	vmovgt.f64	d5, d7
    8af2:	4293      	cmp	r3, r2
    8af4:	d1f0      	bne.n	8ad8 <main+0x354>
    8af6:	eeb5 5bc0 	vcmpe.f64	d5, #0.0
    8afa:	f50d 7aec 	add.w	sl, sp, #472	; 0x1d8
    8afe:	eef1 fa10 	vmrs	APSR_nzcv, fpscr
    8b02:	f04f 0400 	mov.w	r4, #0
    8b06:	f105 0801 	add.w	r8, r5, #1
    8b0a:	f105 0702 	add.w	r7, r5, #2
    8b0e:	bfc8      	it	gt
    8b10:	ee8b cb05 	vdivgt.f64	d12, d11, d5
    8b14:	f105 0603 	add.w	r6, r5, #3
    8b18:	bfd8      	it	le
    8b1a:	ee8d cb05 	vdivle.f64	d12, d13, d5
    8b1e:	ed1a 0b10 	vldr	d0, [sl, #-64]	; 0xffffffc0
    8b22:	f89a f000 	pld	[sl]
    8b26:	f10a 0a20 	add.w	sl, sl, #32
    8b2a:	ee2c 0b00 	vmul.f64	d0, d12, d0
    8b2e:	f7ff ed9a 	blx	8664 <_init+0x5c>
    8b32:	eebd 0bc0 	vcvt.s32.f64	s0, d0
    8b36:	ee10 3a10 	vmov	r3, s0
    8b3a:	b2db      	uxtb	r3, r3
    8b3c:	552b      	strb	r3, [r5, r4]
    8b3e:	ed1a 0b16 	vldr	d0, [sl, #-88]	; 0xffffffa8
    8b42:	ee2c 0b00 	vmul.f64	d0, d12, d0
    8b46:	f7ff ed8e 	blx	8664 <_init+0x5c>
    8b4a:	eebd 0bc0 	vcvt.s32.f64	s0, d0
    8b4e:	ee10 3a10 	vmov	r3, s0
    8b52:	b2db      	uxtb	r3, r3
    8b54:	f808 3004 	strb.w	r3, [r8, r4]
    8b58:	ed1a 0b14 	vldr	d0, [sl, #-80]	; 0xffffffb0
    8b5c:	ee2c 0b00 	vmul.f64	d0, d12, d0
    8b60:	f7ff ed80 	blx	8664 <_init+0x5c>
    8b64:	eebd 0bc0 	vcvt.s32.f64	s0, d0
    8b68:	ee10 3a10 	vmov	r3, s0
    8b6c:	b2db      	uxtb	r3, r3
    8b6e:	553b      	strb	r3, [r7, r4]
    8b70:	ed1a 0b12 	vldr	d0, [sl, #-72]	; 0xffffffb8
    8b74:	ee2c 0b00 	vmul.f64	d0, d12, d0
    8b78:	f7ff ed74 	blx	8664 <_init+0x5c>
    8b7c:	eebd 0bc0 	vcvt.s32.f64	s0, d0
    8b80:	1d23      	adds	r3, r4, #4
    8b82:	2b7c      	cmp	r3, #124	; 0x7c
    8b84:	f1c4 007c 	rsb	r0, r4, #124	; 0x7c
    8b88:	ee10 2a10 	vmov	r2, s0
    8b8c:	b2d2      	uxtb	r2, r2
    8b8e:	5532      	strb	r2, [r6, r4]
    8b90:	461c      	mov	r4, r3
    8b92:	d1c4      	bne.n	8b1e <main+0x39a>
    8b94:	f100 067c 	add.w	r6, r0, #124	; 0x7c
    8b98:	f50d 7acc 	add.w	sl, sp, #408	; 0x198
    8b9c:	9c05      	ldr	r4, [sp, #20]
    8b9e:	eb0a 06c6 	add.w	r6, sl, r6, lsl #3
    8ba2:	f105 077c 	add.w	r7, r5, #124	; 0x7c
    8ba6:	e00b      	b.n	8bc0 <main+0x43c>
    8ba8:	ffc00000 			; <UNDEFINED> instruction: 0xffc00000
    8bac:	41dfffff 	ldrshmi	pc, [pc, #255]	; 8cb3 <main+0x52f>	; <UNPREDICTABLE>
    8bb0:	00000000 	andeq	r0, r0, r0
    8bb4:	c0600000 	rsbgt	r0, r0, r0
    8bb8:	00000000 	andeq	r0, r0, r0
    8bbc:	405fc000 	subsmi	ip, pc, r0
    8bc0:	ecb4 0b02 	vldmia	r4!, {d0}
    8bc4:	ee20 0b0c 	vmul.f64	d0, d0, d12
    8bc8:	f7ff ed4c 	blx	8664 <_init+0x5c>
    8bcc:	eebd 0bc0 	vcvt.s32.f64	s0, d0
    8bd0:	42b4      	cmp	r4, r6
    8bd2:	ee10 3a10 	vmov	r3, s0
    8bd6:	b2db      	uxtb	r3, r3
    8bd8:	f807 3b01 	strb.w	r3, [r7], #1
    8bdc:	d1f0      	bne.n	8bc0 <main+0x43c>
    8bde:	9c09      	ldr	r4, [sp, #36]	; 0x24
    8be0:	2280      	movs	r2, #128	; 0x80
    8be2:	9e08      	ldr	r6, [sp, #32]
    8be4:	4629      	mov	r1, r5
    8be6:	6823      	ldr	r3, [r4, #0]
    8be8:	eb03 0009 	add.w	r0, r3, r9
    8bec:	4491      	add	r9, r2
    8bee:	4430      	add	r0, r6
    8bf0:	f7ff ed32 	blx	8658 <_init+0x50>
    8bf4:	f5b9 4f80 	cmp.w	r9, #16384	; 0x4000
    8bf8:	f47f ae43 	bne.w	8882 <main+0xfe>
    8bfc:	9c0a      	ldr	r4, [sp, #40]	; 0x28
    8bfe:	3401      	adds	r4, #1
    8c00:	2c08      	cmp	r4, #8
    8c02:	940a      	str	r4, [sp, #40]	; 0x28
    8c04:	f47f ae2c 	bne.w	8860 <main+0xdc>
    8c08:	f242 2434 	movw	r4, #8756	; 0x2234
    8c0c:	f50d 6ab3 	add.w	sl, sp, #1432	; 0x598
    8c10:	ad1c      	add	r5, sp, #112	; 0x70
    8c12:	ae12      	add	r6, sp, #72	; 0x48
    8c14:	f2c0 0401 	movt	r4, #1
    8c18:	f60a 7afc 	addw	sl, sl, #4092	; 0xffc
    8c1c:	9508      	str	r5, [sp, #32]
    8c1e:	9604      	str	r6, [sp, #16]
    8c20:	9406      	str	r4, [sp, #24]
    8c22:	f8cd a01c 	str.w	sl, [sp, #28]
    8c26:	9c06      	ldr	r4, [sp, #24]
    8c28:	f50d 51ac 	add.w	r1, sp, #5504	; 0x1580
    8c2c:	3118      	adds	r1, #24
    8c2e:	2208      	movs	r2, #8
    8c30:	2500      	movs	r5, #0
    8c32:	6820      	ldr	r0, [r4, #0]
    8c34:	2400      	movs	r4, #0
    8c36:	e9c1 4500 	strd	r4, r5, [r1]
    8c3a:	f7ff ed08 	blx	864c <_init+0x44>
    8c3e:	2807      	cmp	r0, #7
    8c40:	bf9c      	itt	ls
    8c42:	2000      	movls	r0, #0
    8c44:	2100      	movls	r1, #0
    8c46:	d905      	bls.n	8c54 <main+0x4d0>
    8c48:	f50d 5aac 	add.w	sl, sp, #5504	; 0x1580
    8c4c:	f10a 0a18 	add.w	sl, sl, #24
    8c50:	e9da 0100 	ldrd	r0, r1, [sl]
    8c54:	9c09      	ldr	r4, [sp, #36]	; 0x24
    8c56:	f20d 5594 	addw	r5, sp, #1428	; 0x594
    8c5a:	9e04      	ldr	r6, [sp, #16]
    8c5c:	9505      	str	r5, [sp, #20]
    8c5e:	6822      	ldr	r2, [r4, #0]
    8c60:	e8e6 0102 	strd	r0, r1, [r6], #8
    8c64:	9604      	str	r6, [sp, #16]
    8c66:	4692      	mov	sl, r2
    8c68:	2500      	movs	r5, #0
    8c6a:	ebc2 010a 	rsb	r1, r2, sl
    8c6e:	462c      	mov	r4, r5
    8c70:	462b      	mov	r3, r5
    8c72:	e000      	b.n	8c76 <main+0x4f2>
    8c74:	4603      	mov	r3, r0
    8c76:	1c58      	adds	r0, r3, #1
    8c78:	f813 600a 	ldrb.w	r6, [r3, sl]
    8c7c:	f000 0e7f 	and.w	lr, r0, #127	; 0x7f
    8c80:	f89d 9038 	ldrb.w	r9, [sp, #56]	; 0x38
    8c84:	448e      	add	lr, r1
    8c86:	1c9f      	adds	r7, r3, #2
    8c88:	f812 800e 	ldrb.w	r8, [r2, lr]
    8c8c:	f007 077f 	and.w	r7, r7, #127	; 0x7f
    8c90:	f89d e039 	ldrb.w	lr, [sp, #57]	; 0x39
    8c94:	440f      	add	r7, r1
    8c96:	5dd7      	ldrb	r7, [r2, r7]
    8c98:	fa4f f989 	sxtb.w	r9, r9
    8c9c:	f89d c03a 	ldrb.w	ip, [sp, #58]	; 0x3a
    8ca0:	b276      	sxtb	r6, r6
    8ca2:	fa4f f888 	sxtb.w	r8, r8
    8ca6:	fa4f fe8e 	sxtb.w	lr, lr
    8caa:	b27f      	sxtb	r7, r7
    8cac:	fb18 f80e 	smulbb	r8, r8, lr
    8cb0:	f103 0e03 	add.w	lr, r3, #3
    8cb4:	f00e 0e7f 	and.w	lr, lr, #127	; 0x7f
    8cb8:	fa4f fc8c 	sxtb.w	ip, ip
    8cbc:	448e      	add	lr, r1
    8cbe:	f812 e00e 	ldrb.w	lr, [r2, lr]
    8cc2:	fb16 8609 	smlabb	r6, r6, r9, r8
    8cc6:	f89d 903b 	ldrb.w	r9, [sp, #59]	; 0x3b
    8cca:	f103 0804 	add.w	r8, r3, #4
    8cce:	f008 087f 	and.w	r8, r8, #127	; 0x7f
    8cd2:	4488      	add	r8, r1
    8cd4:	f812 8008 	ldrb.w	r8, [r2, r8]
    8cd8:	fb17 670c 	smlabb	r7, r7, ip, r6
    8cdc:	f89d c03c 	ldrb.w	ip, [sp, #60]	; 0x3c
    8ce0:	1d5e      	adds	r6, r3, #5
    8ce2:	fa4f f989 	sxtb.w	r9, r9
    8ce6:	fa4f fe8e 	sxtb.w	lr, lr
    8cea:	f006 067f 	and.w	r6, r6, #127	; 0x7f
    8cee:	fa4f f888 	sxtb.w	r8, r8
    8cf2:	440e      	add	r6, r1
    8cf4:	fa4f fc8c 	sxtb.w	ip, ip
    8cf8:	fb1e 7e09 	smlabb	lr, lr, r9, r7
    8cfc:	f812 9006 	ldrb.w	r9, [r2, r6]
    8d00:	1d9f      	adds	r7, r3, #6
    8d02:	f89d 603d 	ldrb.w	r6, [sp, #61]	; 0x3d
    8d06:	f007 077f 	and.w	r7, r7, #127	; 0x7f
    8d0a:	440f      	add	r7, r1
    8d0c:	fb18 e80c 	smlabb	r8, r8, ip, lr
    8d10:	f812 c007 	ldrb.w	ip, [r2, r7]
    8d14:	f103 0e07 	add.w	lr, r3, #7
    8d18:	f89d 703e 	ldrb.w	r7, [sp, #62]	; 0x3e
    8d1c:	fa4f f989 	sxtb.w	r9, r9
    8d20:	b276      	sxtb	r6, r6
    8d22:	f00e 0e7f 	and.w	lr, lr, #127	; 0x7f
    8d26:	fa4f fc8c 	sxtb.w	ip, ip
    8d2a:	448e      	add	lr, r1
    8d2c:	b27f      	sxtb	r7, r7
    8d2e:	fb19 8606 	smlabb	r6, r9, r6, r8
    8d32:	f812 900e 	ldrb.w	r9, [r2, lr]
    8d36:	f103 0808 	add.w	r8, r3, #8
    8d3a:	f89d e03f 	ldrb.w	lr, [sp, #63]	; 0x3f
    8d3e:	f008 087f 	and.w	r8, r8, #127	; 0x7f
    8d42:	4488      	add	r8, r1
    8d44:	f812 8008 	ldrb.w	r8, [r2, r8]
    8d48:	fb1c 6707 	smlabb	r7, ip, r7, r6
    8d4c:	f89d c040 	ldrb.w	ip, [sp, #64]	; 0x40
    8d50:	f103 0609 	add.w	r6, r3, #9
    8d54:	fa4f f989 	sxtb.w	r9, r9
    8d58:	fa4f fe8e 	sxtb.w	lr, lr
    8d5c:	f006 067f 	and.w	r6, r6, #127	; 0x7f
    8d60:	fa4f f888 	sxtb.w	r8, r8
    8d64:	440e      	add	r6, r1
    8d66:	fa4f fc8c 	sxtb.w	ip, ip
    8d6a:	fb19 7e0e 	smlabb	lr, r9, lr, r7
    8d6e:	f812 9006 	ldrb.w	r9, [r2, r6]
    8d72:	f103 070a 	add.w	r7, r3, #10
    8d76:	f89d 6041 	ldrb.w	r6, [sp, #65]	; 0x41
    8d7a:	f007 077f 	and.w	r7, r7, #127	; 0x7f
    8d7e:	440f      	add	r7, r1
    8d80:	fb18 e80c 	smlabb	r8, r8, ip, lr
    8d84:	f812 c007 	ldrb.w	ip, [r2, r7]
    8d88:	f89d e042 	ldrb.w	lr, [sp, #66]	; 0x42
    8d8c:	f103 070b 	add.w	r7, r3, #11
    8d90:	fa4f f989 	sxtb.w	r9, r9
    8d94:	b276      	sxtb	r6, r6
    8d96:	f007 077f 	and.w	r7, r7, #127	; 0x7f
    8d9a:	fa4f fc8c 	sxtb.w	ip, ip
    8d9e:	440f      	add	r7, r1
    8da0:	fa4f fe8e 	sxtb.w	lr, lr
    8da4:	fb19 8606 	smlabb	r6, r9, r6, r8
    8da8:	f812 9007 	ldrb.w	r9, [r2, r7]
    8dac:	f103 080c 	add.w	r8, r3, #12
    8db0:	f89d 7043 	ldrb.w	r7, [sp, #67]	; 0x43
    8db4:	f008 087f 	and.w	r8, r8, #127	; 0x7f
    8db8:	4488      	add	r8, r1
    8dba:	f812 8008 	ldrb.w	r8, [r2, r8]
    8dbe:	fb1c 6c0e 	smlabb	ip, ip, lr, r6
    8dc2:	f89d e044 	ldrb.w	lr, [sp, #68]	; 0x44
    8dc6:	f103 060d 	add.w	r6, r3, #13
    8dca:	fa4f f989 	sxtb.w	r9, r9
    8dce:	b27f      	sxtb	r7, r7
    8dd0:	f006 067f 	and.w	r6, r6, #127	; 0x7f
    8dd4:	fa4f f888 	sxtb.w	r8, r8
    8dd8:	440e      	add	r6, r1
    8dda:	fa4f fe8e 	sxtb.w	lr, lr
    8dde:	fb19 c707 	smlabb	r7, r9, r7, ip
    8de2:	f812 9006 	ldrb.w	r9, [r2, r6]
    8de6:	f89d c045 	ldrb.w	ip, [sp, #69]	; 0x45
    8dea:	f103 060e 	add.w	r6, r3, #14
    8dee:	f006 067f 	and.w	r6, r6, #127	; 0x7f
    8df2:	440e      	add	r6, r1
    8df4:	fb18 7e0e 	smlabb	lr, r8, lr, r7
    8df8:	f812 8006 	ldrb.w	r8, [r2, r6]
    8dfc:	f89d 7046 	ldrb.w	r7, [sp, #70]	; 0x46
    8e00:	f103 060f 	add.w	r6, r3, #15
    8e04:	fa4f f989 	sxtb.w	r9, r9
    8e08:	fa4f fc8c 	sxtb.w	ip, ip
    8e0c:	f006 067f 	and.w	r6, r6, #127	; 0x7f
    8e10:	fa4f f888 	sxtb.w	r8, r8
    8e14:	440e      	add	r6, r1
    8e16:	b27f      	sxtb	r7, r7
    8e18:	5d96      	ldrb	r6, [r2, r6]
    8e1a:	fb19 ec0c 	smlabb	ip, r9, ip, lr
    8e1e:	f89d e047 	ldrb.w	lr, [sp, #71]	; 0x47
    8e22:	fb18 c707 	smlabb	r7, r8, r7, ip
    8e26:	b276      	sxtb	r6, r6
    8e28:	fa4f fe8e 	sxtb.w	lr, lr
    8e2c:	fb16 760e 	smlabb	r6, r6, lr, r7
    8e30:	42a6      	cmp	r6, r4
    8e32:	bfc8      	it	gt
    8e34:	461d      	movgt	r5, r3
    8e36:	42b4      	cmp	r4, r6
    8e38:	bfb8      	it	lt
    8e3a:	4634      	movlt	r4, r6
    8e3c:	2880      	cmp	r0, #128	; 0x80
    8e3e:	f47f af19 	bne.w	8c74 <main+0x4f0>
    8e42:	f8dd e014 	ldr.w	lr, [sp, #20]
    8e46:	f10a 0a80 	add.w	sl, sl, #128	; 0x80
    8e4a:	9b07      	ldr	r3, [sp, #28]
    8e4c:	f84e 5f04 	str.w	r5, [lr, #4]!
    8e50:	459e      	cmp	lr, r3
    8e52:	f8cd e014 	str.w	lr, [sp, #20]
    8e56:	f47f af07 	bne.w	8c68 <main+0x4e4>
    8e5a:	9c06      	ldr	r4, [sp, #24]
    8e5c:	f50d 51ac 	add.w	r1, sp, #5504	; 0x1580
    8e60:	3118      	adds	r1, #24
    8e62:	2208      	movs	r2, #8
    8e64:	2500      	movs	r5, #0
    8e66:	6820      	ldr	r0, [r4, #0]
    8e68:	2400      	movs	r4, #0
    8e6a:	e9c1 4500 	strd	r4, r5, [r1]
    8e6e:	f7ff ebee 	blx	864c <_init+0x44>
    8e72:	2807      	cmp	r0, #7
    8e74:	bf9c      	itt	ls
    8e76:	2000      	movls	r0, #0
    8e78:	2100      	movls	r1, #0
    8e7a:	d905      	bls.n	8e88 <main+0x704>
    8e7c:	f50d 5aac 	add.w	sl, sp, #5504	; 0x1580
    8e80:	f10a 0a18 	add.w	sl, sl, #24
    8e84:	e9da 0100 	ldrd	r0, r1, [sl]
    8e88:	9c04      	ldr	r4, [sp, #16]
    8e8a:	9d08      	ldr	r5, [sp, #32]
    8e8c:	e954 2302 	ldrd	r2, r3, [r4, #-8]
    8e90:	1a82      	subs	r2, r0, r2
    8e92:	eb61 0303 	sbc.w	r3, r1, r3
    8e96:	42ac      	cmp	r4, r5
    8e98:	e944 2302 	strd	r2, r3, [r4, #-8]
    8e9c:	f47f aec3 	bne.w	8c26 <main+0x4a2>
    8ea0:	f649 70c4 	movw	r0, #40900	; 0x9fc4
    8ea4:	f20d 7574 	addw	r5, sp, #1908	; 0x774
    8ea8:	2400      	movs	r4, #0
    8eaa:	eeb4 8b00 	vmov.f64	d8, #64	; 0x40
    8eae:	f2c0 0000 	movt	r0, #0
    8eb2:	f7ff ebde 	blx	8670 <_init+0x68>
    8eb6:	2200      	movs	r2, #0
    8eb8:	f5a5 73ee 	sub.w	r3, r5, #476	; 0x1dc
    8ebc:	4611      	mov	r1, r2
    8ebe:	68d8      	ldr	r0, [r3, #12]
    8ec0:	3108      	adds	r1, #8
    8ec2:	691f      	ldr	r7, [r3, #16]
    8ec4:	681e      	ldr	r6, [r3, #0]
    8ec6:	f1a0 0c3c 	sub.w	ip, r0, #60	; 0x3c
    8eca:	6898      	ldr	r0, [r3, #8]
    8ecc:	3f3c      	subs	r7, #60	; 0x3c
    8ece:	f1bc 0f00 	cmp.w	ip, #0
    8ed2:	bfb8      	it	lt
    8ed4:	f1cc 0c00 	rsblt	ip, ip, #0
    8ed8:	2f00      	cmp	r7, #0
    8eda:	f1a6 0e3c 	sub.w	lr, r6, #60	; 0x3c
    8ede:	bfb8      	it	lt
    8ee0:	427f      	neglt	r7, r7
    8ee2:	685e      	ldr	r6, [r3, #4]
    8ee4:	f1be 0f00 	cmp.w	lr, #0
    8ee8:	44bc      	add	ip, r7
    8eea:	f1a0 073c 	sub.w	r7, r0, #60	; 0x3c
    8eee:	69d8      	ldr	r0, [r3, #28]
    8ef0:	bfb8      	it	lt
    8ef2:	f1ce 0e00 	rsblt	lr, lr, #0
    8ef6:	2f00      	cmp	r7, #0
    8ef8:	44f4      	add	ip, lr
    8efa:	bfb8      	it	lt
    8efc:	427f      	neglt	r7, r7
    8efe:	f1a6 0e3c 	sub.w	lr, r6, #60	; 0x3c
    8f02:	699e      	ldr	r6, [r3, #24]
    8f04:	44bc      	add	ip, r7
    8f06:	f1a0 073c 	sub.w	r7, r0, #60	; 0x3c
    8f0a:	6958      	ldr	r0, [r3, #20]
    8f0c:	f1be 0f00 	cmp.w	lr, #0
    8f10:	f893 f05c 	pld	[r3, #92]	; 0x5c
    8f14:	f1a6 063c 	sub.w	r6, r6, #60	; 0x3c
    8f18:	bfb8      	it	lt
    8f1a:	f1ce 0e00 	rsblt	lr, lr, #0
    8f1e:	2f00      	cmp	r7, #0
    8f20:	f1a0 003c 	sub.w	r0, r0, #60	; 0x3c
    8f24:	bfb8      	it	lt
    8f26:	427f      	neglt	r7, r7
    8f28:	44e6      	add	lr, ip
    8f2a:	2e00      	cmp	r6, #0
    8f2c:	4477      	add	r7, lr
    8f2e:	bfb8      	it	lt
    8f30:	4276      	neglt	r6, r6
    8f32:	2800      	cmp	r0, #0
    8f34:	bfb8      	it	lt
    8f36:	4240      	neglt	r0, r0
    8f38:	443e      	add	r6, r7
    8f3a:	2978      	cmp	r1, #120	; 0x78
    8f3c:	4430      	add	r0, r6
    8f3e:	f103 0320 	add.w	r3, r3, #32
    8f42:	4402      	add	r2, r0
    8f44:	d1bb      	bne.n	8ebe <main+0x73a>
    8f46:	f105 0020 	add.w	r0, r5, #32
    8f4a:	462b      	mov	r3, r5
    8f4c:	f853 1f04 	ldr.w	r1, [r3, #4]!
    8f50:	393c      	subs	r1, #60	; 0x3c
    8f52:	2900      	cmp	r1, #0
    8f54:	bfb8      	it	lt
    8f56:	4249      	neglt	r1, r1
    8f58:	4283      	cmp	r3, r0
    8f5a:	440a      	add	r2, r1
    8f5c:	d1f6      	bne.n	8f4c <main+0x7c8>
    8f5e:	ee01 4a10 	vmov	s2, r4
    8f62:	f649 70d0 	movw	r0, #40912	; 0x9fd0
    8f66:	eeb8 7bc1 	vcvt.f64.s32	d7, s2
    8f6a:	3401      	adds	r4, #1
    8f6c:	eeb0 2b48 	vmov.f64	d2, d8
    8f70:	f2c0 0000 	movt	r0, #0
    8f74:	9200      	str	r2, [sp, #0]
    8f76:	f505 7500 	add.w	r5, r5, #512	; 0x200
    8f7a:	ee07 2b08 	vmla.f64	d2, d7, d8
    8f7e:	ec53 2b12 	vmov	r2, r3, d2
    8f82:	f7ff eb58 	blx	8634 <_init+0x2c>
    8f86:	2c08      	cmp	r4, #8
    8f88:	d195      	bne.n	8eb6 <main+0x732>
    8f8a:	f8dd a018 	ldr.w	sl, [sp, #24]
    8f8e:	f10d 0970 	add.w	r9, sp, #112	; 0x70
    8f92:	2600      	movs	r6, #0
    8f94:	2700      	movs	r7, #0
    8f96:	f04f 0810 	mov.w	r8, #16
    8f9a:	f8da 0000 	ldr.w	r0, [sl]
    8f9e:	a90c      	add	r1, sp, #48	; 0x30
    8fa0:	2208      	movs	r2, #8
    8fa2:	e9cd 670c 	strd	r6, r7, [sp, #48]	; 0x30
    8fa6:	f7ff eb52 	blx	864c <_init+0x44>
    8faa:	2807      	cmp	r0, #7
    8fac:	bf9c      	itt	ls
    8fae:	2400      	movls	r4, #0
    8fb0:	2500      	movls	r5, #0
    8fb2:	d901      	bls.n	8fb8 <main+0x834>
    8fb4:	e9dd 450c 	ldrd	r4, r5, [sp, #48]	; 0x30
    8fb8:	9909      	ldr	r1, [sp, #36]	; 0x24
    8fba:	f50d 53ac 	add.w	r3, sp, #5504	; 0x1580
    8fbe:	3318      	adds	r3, #24
    8fc0:	2280      	movs	r2, #128	; 0x80
    8fc2:	6808      	ldr	r0, [r1, #0]
    8fc4:	f44f 6180 	mov.w	r1, #1024	; 0x400
    8fc8:	9301      	str	r3, [sp, #4]
    8fca:	ab0e      	add	r3, sp, #56	; 0x38
    8fcc:	f8cd 8000 	str.w	r8, [sp]
    8fd0:	e8e9 4502 	strd	r4, r5, [r9], #8
    8fd4:	f000 fde0 	bl	9b98 <hw_bulkcorrelate>
    8fd8:	a90c      	add	r1, sp, #48	; 0x30
    8fda:	f8da 0000 	ldr.w	r0, [sl]
    8fde:	2208      	movs	r2, #8
    8fe0:	e9cd 670c 	strd	r6, r7, [sp, #48]	; 0x30
    8fe4:	f7ff eb32 	blx	864c <_init+0x44>
    8fe8:	2807      	cmp	r0, #7
    8fea:	bf9c      	itt	ls
    8fec:	2000      	movls	r0, #0
    8fee:	2100      	movls	r1, #0
    8ff0:	d901      	bls.n	8ff6 <main+0x872>
    8ff2:	e9dd 010c 	ldrd	r0, r1, [sp, #48]	; 0x30
    8ff6:	e959 2302 	ldrd	r2, r3, [r9, #-8]
    8ffa:	1a82      	subs	r2, r0, r2
    8ffc:	eb61 0303 	sbc.w	r3, r1, r3
    9000:	45d9      	cmp	r9, fp
    9002:	e949 2302 	strd	r2, r3, [r9, #-8]
    9006:	d1c8      	bne.n	8f9a <main+0x816>
    9008:	f649 70e8 	movw	r0, #40936	; 0x9fe8
    900c:	f50d 5cac 	add.w	ip, sp, #5504	; 0x1580
    9010:	f10c 0c18 	add.w	ip, ip, #24
    9014:	2400      	movs	r4, #0
    9016:	f2c0 0000 	movt	r0, #0
    901a:	f8cd c00c 	str.w	ip, [sp, #12]
    901e:	9408      	str	r4, [sp, #32]
    9020:	f50d 68b3 	add.w	r8, sp, #1432	; 0x598
    9024:	940a      	str	r4, [sp, #40]	; 0x28
    9026:	f7ff eb24 	blx	8670 <_init+0x68>
    902a:	f8dd c00c 	ldr.w	ip, [sp, #12]
    902e:	eeb4 8b00 	vmov.f64	d8, #64	; 0x40
    9032:	46e1      	mov	r9, ip
    9034:	2400      	movs	r4, #0
    9036:	4648      	mov	r0, r9
    9038:	4623      	mov	r3, r4
    903a:	4625      	mov	r5, r4
    903c:	4641      	mov	r1, r8
    903e:	4627      	mov	r7, r4
    9040:	f108 0640 	add.w	r6, r8, #64	; 0x40
    9044:	f109 0a40 	add.w	sl, r9, #64	; 0x40
    9048:	9607      	str	r6, [sp, #28]
    904a:	f8cd a018 	str.w	sl, [sp, #24]
    904e:	69ce      	ldr	r6, [r1, #28]
    9050:	f105 0208 	add.w	r2, r5, #8
    9054:	f1c5 0578 	rsb	r5, r5, #120	; 0x78
    9058:	3120      	adds	r1, #32
    905a:	9505      	str	r5, [sp, #20]
    905c:	3020      	adds	r0, #32
    905e:	f1a6 0a3c 	sub.w	sl, r6, #60	; 0x3c
    9062:	f851 6c08 	ldr.w	r6, [r1, #-8]
    9066:	f1ba 0f00 	cmp.w	sl, #0
    906a:	4615      	mov	r5, r2
    906c:	bfb8      	it	lt
    906e:	f1ca 0a00 	rsblt	sl, sl, #0
    9072:	f1a6 0c3c 	sub.w	ip, r6, #60	; 0x3c
    9076:	f850 6c04 	ldr.w	r6, [r0, #-4]
    907a:	f1bc 0f00 	cmp.w	ip, #0
    907e:	bfb8      	it	lt
    9080:	f1cc 0c00 	rsblt	ip, ip, #0
    9084:	f1a6 0b3c 	sub.w	fp, r6, #60	; 0x3c
    9088:	f850 6c08 	ldr.w	r6, [r0, #-8]
    908c:	f1bb 0f00 	cmp.w	fp, #0
    9090:	44d4      	add	ip, sl
    9092:	bfb8      	it	lt
    9094:	f1cb 0b00 	rsblt	fp, fp, #0
    9098:	3e3c      	subs	r6, #60	; 0x3c
    909a:	ea86 7ee6 	eor.w	lr, r6, r6, asr #31
    909e:	ebae 7ee6 	sub.w	lr, lr, r6, asr #31
    90a2:	9e07      	ldr	r6, [sp, #28]
    90a4:	44f3      	add	fp, lr
    90a6:	f8dd e018 	ldr.w	lr, [sp, #24]
    90aa:	f816 f004 	pld	[r6, r4]
    90ae:	f858 6004 	ldr.w	r6, [r8, r4]
    90b2:	f81e f004 	pld	[lr, r4]
    90b6:	f1a6 0a3c 	sub.w	sl, r6, #60	; 0x3c
    90ba:	f859 6004 	ldr.w	r6, [r9, r4]
    90be:	f1ba 0f00 	cmp.w	sl, #0
    90c2:	f104 0420 	add.w	r4, r4, #32
    90c6:	bfb8      	it	lt
    90c8:	f1ca 0a00 	rsblt	sl, sl, #0
    90cc:	3e3c      	subs	r6, #60	; 0x3c
    90ce:	44d4      	add	ip, sl
    90d0:	ea86 7ee6 	eor.w	lr, r6, r6, asr #31
    90d4:	ebae 7ee6 	sub.w	lr, lr, r6, asr #31
    90d8:	f851 6c0c 	ldr.w	r6, [r1, #-12]
    90dc:	44f3      	add	fp, lr
    90de:	f1a6 0a3c 	sub.w	sl, r6, #60	; 0x3c
    90e2:	f850 6c0c 	ldr.w	r6, [r0, #-12]
    90e6:	f1ba 0f00 	cmp.w	sl, #0
    90ea:	bfb8      	it	lt
    90ec:	f1ca 0a00 	rsblt	sl, sl, #0
    90f0:	3e3c      	subs	r6, #60	; 0x3c
    90f2:	44d4      	add	ip, sl
    90f4:	ea86 7ee6 	eor.w	lr, r6, r6, asr #31
    90f8:	ebae 7ee6 	sub.w	lr, lr, r6, asr #31
    90fc:	f851 6c10 	ldr.w	r6, [r1, #-16]
    9100:	44f3      	add	fp, lr
    9102:	f1a6 0a3c 	sub.w	sl, r6, #60	; 0x3c
    9106:	f850 6c10 	ldr.w	r6, [r0, #-16]
    910a:	f1ba 0f00 	cmp.w	sl, #0
    910e:	bfb8      	it	lt
    9110:	f1ca 0a00 	rsblt	sl, sl, #0
    9114:	3e3c      	subs	r6, #60	; 0x3c
    9116:	44d4      	add	ip, sl
    9118:	ea86 7ee6 	eor.w	lr, r6, r6, asr #31
    911c:	ebae 7ee6 	sub.w	lr, lr, r6, asr #31
    9120:	f851 6c14 	ldr.w	r6, [r1, #-20]
    9124:	44f3      	add	fp, lr
    9126:	f1a6 0a3c 	sub.w	sl, r6, #60	; 0x3c
    912a:	f850 6c14 	ldr.w	r6, [r0, #-20]
    912e:	f1ba 0f00 	cmp.w	sl, #0
    9132:	bfb8      	it	lt
    9134:	f1ca 0a00 	rsblt	sl, sl, #0
    9138:	3e3c      	subs	r6, #60	; 0x3c
    913a:	44d4      	add	ip, sl
    913c:	ea86 7ee6 	eor.w	lr, r6, r6, asr #31
    9140:	ebae 7ee6 	sub.w	lr, lr, r6, asr #31
    9144:	f851 6c18 	ldr.w	r6, [r1, #-24]
    9148:	44f3      	add	fp, lr
    914a:	f1a6 0a3c 	sub.w	sl, r6, #60	; 0x3c
    914e:	f850 6c18 	ldr.w	r6, [r0, #-24]
    9152:	f1ba 0f00 	cmp.w	sl, #0
    9156:	bfb8      	it	lt
    9158:	f1ca 0a00 	rsblt	sl, sl, #0
    915c:	3e3c      	subs	r6, #60	; 0x3c
    915e:	44d4      	add	ip, sl
    9160:	46b6      	mov	lr, r6
    9162:	9604      	str	r6, [sp, #16]
    9164:	ea86 76e6 	eor.w	r6, r6, r6, asr #31
    9168:	f851 ac1c 	ldr.w	sl, [r1, #-28]
    916c:	eba6 76ee 	sub.w	r6, r6, lr, asr #31
    9170:	f1aa 0a3c 	sub.w	sl, sl, #60	; 0x3c
    9174:	445e      	add	r6, fp
    9176:	f850 bc1c 	ldr.w	fp, [r0, #-28]
    917a:	f1ba 0f00 	cmp.w	sl, #0
    917e:	bfb8      	it	lt
    9180:	f1ca 0a00 	rsblt	sl, sl, #0
    9184:	f1ab 0b3c 	sub.w	fp, fp, #60	; 0x3c
    9188:	44d4      	add	ip, sl
    918a:	f1bb 0f00 	cmp.w	fp, #0
    918e:	4467      	add	r7, ip
    9190:	bfb8      	it	lt
    9192:	f1cb 0b00 	rsblt	fp, fp, #0
    9196:	2a78      	cmp	r2, #120	; 0x78
    9198:	445e      	add	r6, fp
    919a:	4433      	add	r3, r6
    919c:	f47f af57 	bne.w	904e <main+0x8ca>
    91a0:	f8dd e014 	ldr.w	lr, [sp, #20]
    91a4:	463a      	mov	r2, r7
    91a6:	2100      	movs	r1, #0
    91a8:	f508 76f0 	add.w	r6, r8, #480	; 0x1e0
    91ac:	f509 75f0 	add.w	r5, r9, #480	; 0x1e0
    91b0:	ea4f 0e8e 	mov.w	lr, lr, lsl #2
    91b4:	5874      	ldr	r4, [r6, r1]
    91b6:	5868      	ldr	r0, [r5, r1]
    91b8:	3104      	adds	r1, #4
    91ba:	3c3c      	subs	r4, #60	; 0x3c
    91bc:	383c      	subs	r0, #60	; 0x3c
    91be:	2c00      	cmp	r4, #0
    91c0:	bfb8      	it	lt
    91c2:	4264      	neglt	r4, r4
    91c4:	2800      	cmp	r0, #0
    91c6:	bfb8      	it	lt
    91c8:	4240      	neglt	r0, r0
    91ca:	4571      	cmp	r1, lr
    91cc:	4422      	add	r2, r4
    91ce:	4403      	add	r3, r0
    91d0:	d1f0      	bne.n	91b4 <main+0xa30>
    91d2:	ed9d 1a0a 	vldr	s2, [sp, #40]	; 0x28
    91d6:	1ad2      	subs	r2, r2, r3
    91d8:	ea82 71e2 	eor.w	r1, r2, r2, asr #31
    91dc:	f649 70f4 	movw	r0, #40948	; 0x9ff4
    91e0:	9300      	str	r3, [sp, #0]
    91e2:	f2c0 0000 	movt	r0, #0
    91e6:	eba1 71e2 	sub.w	r1, r1, r2, asr #31
    91ea:	f508 7800 	add.w	r8, r8, #512	; 0x200
    91ee:	eeb8 7bc1 	vcvt.f64.s32	d7, s2
    91f2:	f509 7900 	add.w	r9, r9, #512	; 0x200
    91f6:	ee11 4a10 	vmov	r4, s2
    91fa:	eeb0 1b48 	vmov.f64	d1, d8
    91fe:	3401      	adds	r4, #1
    9200:	940a      	str	r4, [sp, #40]	; 0x28
    9202:	ee07 1b08 	vmla.f64	d1, d7, d8
    9206:	9c08      	ldr	r4, [sp, #32]
    9208:	9101      	str	r1, [sp, #4]
    920a:	440c      	add	r4, r1
    920c:	9408      	str	r4, [sp, #32]
    920e:	ec53 2b11 	vmov	r2, r3, d1
    9212:	f7ff ea10 	blx	8634 <_init+0x2c>
    9216:	9d0a      	ldr	r5, [sp, #40]	; 0x28
    9218:	2d08      	cmp	r5, #8
    921a:	f47f af0b 	bne.w	9034 <main+0x8b0>
    921e:	f24a 0018 	movw	r0, #40984	; 0xa018
    9222:	9908      	ldr	r1, [sp, #32]
    9224:	f2c0 0000 	movt	r0, #0
    9228:	f7ff ea04 	blx	8634 <_init+0x2c>
    922c:	9c08      	ldr	r4, [sp, #32]
    922e:	f5b4 6f80 	cmp.w	r4, #1024	; 0x400
    9232:	bf35      	itete	cc
    9234:	f24a 002c 	movwcc	r0, #41004	; 0xa02c
    9238:	f24a 0040 	movwcs	r0, #41024	; 0xa040
    923c:	f2c0 0000 	movtcc	r0, #0
    9240:	f2c0 0000 	movtcs	r0, #0
    9244:	f7ff ea14 	blx	8670 <_init+0x68>
    9248:	f249 33e1 	movw	r3, #37857	; 0x93e1
    924c:	2105      	movs	r1, #5
    924e:	a812      	add	r0, sp, #72	; 0x48
    9250:	f2c0 0300 	movt	r3, #0
    9254:	2208      	movs	r2, #8
    9256:	f7ff ea56 	blx	8704 <_init+0xfc>
    925a:	f24a 0054 	movw	r0, #41044	; 0xa054
    925e:	e9dd 2316 	ldrd	r2, r3, [sp, #88]	; 0x58
    9262:	f2c0 0000 	movt	r0, #0
    9266:	f7ff e9e6 	blx	8634 <_init+0x2c>
    926a:	f249 33e1 	movw	r3, #37857	; 0x93e1
    926e:	2105      	movs	r1, #5
    9270:	a81c      	add	r0, sp, #112	; 0x70
    9272:	f2c0 0300 	movt	r3, #0
    9276:	2208      	movs	r2, #8
    9278:	f7ff ea44 	blx	8704 <_init+0xfc>
    927c:	f24a 0074 	movw	r0, #41076	; 0xa074
    9280:	e9dd 2320 	ldrd	r2, r3, [sp, #128]	; 0x80
    9284:	f2c0 0000 	movt	r0, #0
    9288:	f7ff e9d4 	blx	8634 <_init+0x2c>
    928c:	9d09      	ldr	r5, [sp, #36]	; 0x24
    928e:	f44f 3100 	mov.w	r1, #131072	; 0x20000
    9292:	6828      	ldr	r0, [r5, #0]
    9294:	f7ff ea30 	blx	86f8 <_init+0xf0>
    9298:	4604      	mov	r4, r0
    929a:	b990      	cbnz	r0, 92c2 <main+0xb3e>
    929c:	980b      	ldr	r0, [sp, #44]	; 0x2c
    929e:	f7ff ea40 	blx	8720 <_init+0x118>
    92a2:	4620      	mov	r0, r4
    92a4:	f50d 5d16 	add.w	sp, sp, #9600	; 0x2580
    92a8:	b007      	add	sp, #28
    92aa:	ecbd 8b10 	vpop	{d8-d15}
    92ae:	e8bd 8ff0 	ldmia.w	sp!, {r4, r5, r6, r7, r8, r9, sl, fp, pc}
    92b2:	f649 7088 	movw	r0, #40840	; 0x9f88
    92b6:	2401      	movs	r4, #1
    92b8:	f2c0 0000 	movt	r0, #0
    92bc:	f7ff e9d8 	blx	8670 <_init+0x68>
    92c0:	e7ef      	b.n	92a2 <main+0xb1e>
    92c2:	f24a 0098 	movw	r0, #41112	; 0xa098
    92c6:	2401      	movs	r4, #1
    92c8:	f2c0 0000 	movt	r0, #0
    92cc:	f7ff e9d0 	blx	8670 <_init+0x68>
    92d0:	980b      	ldr	r0, [sp, #44]	; 0x2c
    92d2:	f7ff ea26 	blx	8720 <_init+0x118>
    92d6:	e7e4      	b.n	92a2 <main+0xb1e>
    92d8:	f649 7088 	movw	r0, #40840	; 0x9f88
    92dc:	f2c0 0000 	movt	r0, #0
    92e0:	f7ff e9c6 	blx	8670 <_init+0x68>
    92e4:	6820      	ldr	r0, [r4, #0]
    92e6:	f7ff ba89 	b.w	87fc <main+0x78>
    92ea:	f649 70ac 	movw	r0, #40876	; 0x9fac
    92ee:	2401      	movs	r4, #1
    92f0:	f2c0 0000 	movt	r0, #0
    92f4:	f7ff e9bc 	blx	8670 <_init+0x68>
    92f8:	980b      	ldr	r0, [sp, #44]	; 0x2c
    92fa:	f7ff ea12 	blx	8720 <_init+0x118>
    92fe:	e7d0      	b.n	92a2 <main+0xb1e>

00009300 <_start>:
    9300:	f04f 0b00 	mov.w	fp, #0
    9304:	f04f 0e00 	mov.w	lr, #0
    9308:	bc02      	pop	{r1}
    930a:	466a      	mov	r2, sp
    930c:	b404      	push	{r2}
    930e:	b401      	push	{r0}
    9310:	f8df c010 	ldr.w	ip, [pc, #16]	; 9324 <_start+0x24>
    9314:	f84d cd04 	str.w	ip, [sp, #-4]!
    9318:	4803      	ldr	r0, [pc, #12]	; (9328 <_start+0x28>)
    931a:	4b04      	ldr	r3, [pc, #16]	; (932c <_start+0x2c>)
    931c:	f7ff e9ae 	blx	867c <_init+0x74>
    9320:	f7ff e9f6 	blx	8710 <_init+0x108>
    9324:	00009f3d 	andeq	r9, r0, sp, lsr pc
    9328:	00008785 	andeq	r8, r0, r5, lsl #15
    932c:	00009efd 	strdeq	r9, [r0], -sp

00009330 <call_weak_fn>:
    9330:	e59f3014 	ldr	r3, [pc, #20]	; 934c <call_weak_fn+0x1c>
    9334:	e59f2014 	ldr	r2, [pc, #20]	; 9350 <call_weak_fn+0x20>
    9338:	e08f3003 	add	r3, pc, r3
    933c:	e7932002 	ldr	r2, [r3, r2]
    9340:	e3520000 	cmp	r2, #0
    9344:	012fff1e 	bxeq	lr
    9348:	eafffcce 	b	8688 <_init+0x80>
    934c:	00008e84 	andeq	r8, r0, r4, lsl #29
    9350:	00000064 	andeq	r0, r0, r4, rrx

00009354 <deregister_tm_clones>:
    9354:	4b07      	ldr	r3, [pc, #28]	; (9374 <deregister_tm_clones+0x20>)
    9356:	f242 2038 	movw	r0, #8760	; 0x2238
    935a:	f2c0 0001 	movt	r0, #1
    935e:	1a1b      	subs	r3, r3, r0
    9360:	2b06      	cmp	r3, #6
    9362:	d800      	bhi.n	9366 <deregister_tm_clones+0x12>
    9364:	4770      	bx	lr
    9366:	f240 0300 	movw	r3, #0
    936a:	f2c0 0300 	movt	r3, #0
    936e:	2b00      	cmp	r3, #0
    9370:	d0f8      	beq.n	9364 <deregister_tm_clones+0x10>
    9372:	4718      	bx	r3
    9374:	0001223b 	andeq	r2, r1, fp, lsr r2

00009378 <register_tm_clones>:
    9378:	f242 2338 	movw	r3, #8760	; 0x2238
    937c:	f242 2038 	movw	r0, #8760	; 0x2238
    9380:	f2c0 0301 	movt	r3, #1
    9384:	f2c0 0001 	movt	r0, #1
    9388:	1a1b      	subs	r3, r3, r0
    938a:	109b      	asrs	r3, r3, #2
    938c:	eb03 73d3 	add.w	r3, r3, r3, lsr #31
    9390:	1059      	asrs	r1, r3, #1
    9392:	d100      	bne.n	9396 <register_tm_clones+0x1e>
    9394:	4770      	bx	lr
    9396:	f240 0200 	movw	r2, #0
    939a:	f2c0 0200 	movt	r2, #0
    939e:	2a00      	cmp	r2, #0
    93a0:	d0f8      	beq.n	9394 <register_tm_clones+0x1c>
    93a2:	4710      	bx	r2

000093a4 <__do_global_dtors_aux>:
    93a4:	b510      	push	{r4, lr}
    93a6:	f242 2438 	movw	r4, #8760	; 0x2238
    93aa:	f2c0 0401 	movt	r4, #1
    93ae:	7823      	ldrb	r3, [r4, #0]
    93b0:	b91b      	cbnz	r3, 93ba <__do_global_dtors_aux+0x16>
    93b2:	f7ff ffcf 	bl	9354 <deregister_tm_clones>
    93b6:	2301      	movs	r3, #1
    93b8:	7023      	strb	r3, [r4, #0]
    93ba:	bd10      	pop	{r4, pc}

000093bc <frame_dummy>:
    93bc:	f242 00d0 	movw	r0, #8400	; 0x20d0
    93c0:	b508      	push	{r3, lr}
    93c2:	f2c0 0001 	movt	r0, #1
    93c6:	6803      	ldr	r3, [r0, #0]
    93c8:	b12b      	cbz	r3, 93d6 <frame_dummy+0x1a>
    93ca:	f240 0300 	movw	r3, #0
    93ce:	f2c0 0300 	movt	r3, #0
    93d2:	b103      	cbz	r3, 93d6 <frame_dummy+0x1a>
    93d4:	4798      	blx	r3
    93d6:	e8bd 4008 	ldmia.w	sp!, {r3, lr}
    93da:	e7cd      	b.n	9378 <register_tm_clones>
    93dc:	0000      	movs	r0, r0
	...

000093e0 <compare_unsigned>:
    93e0:	e9d0 2300 	ldrd	r2, r3, [r0]
    93e4:	b430      	push	{r4, r5}
    93e6:	e9d1 4500 	ldrd	r4, r5, [r1]
    93ea:	429d      	cmp	r5, r3
    93ec:	bf08      	it	eq
    93ee:	4294      	cmpeq	r4, r2
    93f0:	bf34      	ite	cc
    93f2:	2001      	movcc	r0, #1
    93f4:	2000      	movcs	r0, #0
    93f6:	42ab      	cmp	r3, r5
    93f8:	bf08      	it	eq
    93fa:	42a2      	cmpeq	r2, r4
    93fc:	bc30      	pop	{r4, r5}
    93fe:	bf38      	it	cc
    9400:	3801      	subcc	r0, #1
    9402:	4770      	bx	lr

00009404 <initrng>:
    9404:	f649 7054 	movw	r0, #40788	; 0x9f54
    9408:	b510      	push	{r4, lr}
    940a:	2100      	movs	r1, #0
    940c:	b082      	sub	sp, #8
    940e:	f2c0 0000 	movt	r0, #0
    9412:	f7ff e940 	blx	8694 <_init+0x8c>
    9416:	a901      	add	r1, sp, #4
    9418:	2204      	movs	r2, #4
    941a:	4604      	mov	r4, r0
    941c:	f7ff e916 	blx	864c <_init+0x44>
    9420:	9801      	ldr	r0, [sp, #4]
    9422:	f7ff e950 	blx	86c4 <_init+0xbc>
    9426:	4620      	mov	r0, r4
    9428:	f7ff e97a 	blx	8720 <_init+0x118>
    942c:	b002      	add	sp, #8
    942e:	bd10      	pop	{r4, pc}

00009430 <gensin>:
    9430:	e92d 43f8 	stmdb	sp!, {r3, r4, r5, r6, r7, r8, r9, lr}
    9434:	460f      	mov	r7, r1
    9436:	ed2d 8b04 	vpush	{d8-d9}
    943a:	2900      	cmp	r1, #0
    943c:	d060      	beq.n	9500 <gensin+0xd0>
    943e:	2904      	cmp	r1, #4
    9440:	ee06 1a90 	vmov	s13, r1
    9444:	4681      	mov	r9, r0
    9446:	eeb8 8b66 	vcvt.f64.u32	d8, s13
    944a:	f1a1 0803 	sub.w	r8, r1, #3
    944e:	d955      	bls.n	94fc <gensin+0xcc>
    9450:	ed9f 9b33 	vldr	d9, [pc, #204]	; 9520 <gensin+0xf0>
    9454:	f100 0538 	add.w	r5, r0, #56	; 0x38
    9458:	2601      	movs	r6, #1
    945a:	2400      	movs	r4, #0
    945c:	ee07 4a90 	vmov	s15, r4
    9460:	eeb8 0be7 	vcvt.f64.s32	d0, s15
    9464:	f895 f000 	pld	[r5]
    9468:	3520      	adds	r5, #32
    946a:	ee20 0b09 	vmul.f64	d0, d0, d9
    946e:	ee80 0b08 	vdiv.f64	d0, d0, d8
    9472:	f7ff e91c 	blx	86ac <_init+0xa4>
    9476:	ee06 6a90 	vmov	s13, r6
    947a:	3604      	adds	r6, #4
    947c:	eeb8 7be6 	vcvt.f64.s32	d7, s13
    9480:	ed05 0b16 	vstr	d0, [r5, #-88]	; 0xffffffa8
    9484:	ee27 0b09 	vmul.f64	d0, d7, d9
    9488:	ee80 0b08 	vdiv.f64	d0, d0, d8
    948c:	f7ff e90e 	blx	86ac <_init+0xa4>
    9490:	1ca3      	adds	r3, r4, #2
    9492:	ed05 0b14 	vstr	d0, [r5, #-80]	; 0xffffffb0
    9496:	ee07 3a90 	vmov	s15, r3
    949a:	eeb8 0be7 	vcvt.f64.s32	d0, s15
    949e:	ee20 0b09 	vmul.f64	d0, d0, d9
    94a2:	ee80 0b08 	vdiv.f64	d0, d0, d8
    94a6:	f7ff e902 	blx	86ac <_init+0xa4>
    94aa:	1ce3      	adds	r3, r4, #3
    94ac:	ed05 0b12 	vstr	d0, [r5, #-72]	; 0xffffffb8
    94b0:	3404      	adds	r4, #4
    94b2:	ee06 3a90 	vmov	s13, r3
    94b6:	eeb8 0be6 	vcvt.f64.s32	d0, s13
    94ba:	ee20 0b09 	vmul.f64	d0, d0, d9
    94be:	ee80 0b08 	vdiv.f64	d0, d0, d8
    94c2:	f7ff e8f4 	blx	86ac <_init+0xa4>
    94c6:	45b0      	cmp	r8, r6
    94c8:	ed05 0b10 	vstr	d0, [r5, #-64]	; 0xffffffc0
    94cc:	d8c6      	bhi.n	945c <gensin+0x2c>
    94ce:	ed9f 9b14 	vldr	d9, [pc, #80]	; 9520 <gensin+0xf0>
    94d2:	eb09 05c4 	add.w	r5, r9, r4, lsl #3
    94d6:	ee07 4a90 	vmov	s15, r4
    94da:	3401      	adds	r4, #1
    94dc:	eeb8 0b67 	vcvt.f64.u32	d0, s15
    94e0:	ee20 0b09 	vmul.f64	d0, d0, d9
    94e4:	ee80 0b08 	vdiv.f64	d0, d0, d8
    94e8:	f7ff e8e0 	blx	86ac <_init+0xa4>
    94ec:	42a7      	cmp	r7, r4
    94ee:	eca5 0b02 	vstmia	r5!, {d0}
    94f2:	d8f0      	bhi.n	94d6 <gensin+0xa6>
    94f4:	ecbd 8b04 	vpop	{d8-d9}
    94f8:	e8bd 83f8 	ldmia.w	sp!, {r3, r4, r5, r6, r7, r8, r9, pc}
    94fc:	2400      	movs	r4, #0
    94fe:	e7e6      	b.n	94ce <gensin+0x9e>
    9500:	f649 7060 	movw	r0, #40800	; 0x9f60
    9504:	f649 7168 	movw	r1, #40808	; 0x9f68
    9508:	f649 734c 	movw	r3, #40780	; 0x9f4c
    950c:	f2c0 0000 	movt	r0, #0
    9510:	f2c0 0100 	movt	r1, #0
    9514:	f2c0 0300 	movt	r3, #0
    9518:	2243      	movs	r2, #67	; 0x43
    951a:	f7ff e908 	blx	872c <_init+0x124>
    951e:	bf00      	nop
    9520:	54442d18 	strbpl	r2, [r4], #-3352	; 0xd18
    9524:	401921fb 			; <UNDEFINED> instruction: 0x401921fb

00009528 <gennoise>:
    9528:	e92d 43f8 	stmdb	sp!, {r3, r4, r5, r6, r7, r8, r9, lr}
    952c:	460f      	mov	r7, r1
    952e:	ed2d 8b06 	vpush	{d8-d10}
    9532:	2900      	cmp	r1, #0
    9534:	d06e      	beq.n	9614 <gennoise+0xec>
    9536:	2904      	cmp	r1, #4
    9538:	4681      	mov	r9, r0
    953a:	eeb0 8b40 	vmov.f64	d8, d0
    953e:	f1a1 0803 	sub.w	r8, r1, #3
    9542:	d96b      	bls.n	961c <gennoise+0xf4>
    9544:	ed9f ab36 	vldr	d10, [pc, #216]	; 9620 <gennoise+0xf8>
    9548:	f100 0538 	add.w	r5, r0, #56	; 0x38
    954c:	2600      	movs	r6, #0
    954e:	eeb7 9b00 	vmov.f64	d9, #112	; 0x70
    9552:	f7ff e8c4 	blx	86dc <_init+0xd4>
    9556:	ee06 0a90 	vmov	s13, r0
    955a:	1d34      	adds	r4, r6, #4
    955c:	eeb8 7be6 	vcvt.f64.s32	d7, s13
    9560:	f895 f000 	pld	[r5]
    9564:	3520      	adds	r5, #32
    9566:	ee37 7b07 	vadd.f64	d7, d7, d7
    956a:	ee87 7b0a 	vdiv.f64	d7, d7, d10
    956e:	ee37 7b49 	vsub.f64	d7, d7, d9
    9572:	ee27 7b08 	vmul.f64	d7, d7, d8
    9576:	ed05 7b16 	vstr	d7, [r5, #-88]	; 0xffffffa8
    957a:	f7ff e8b0 	blx	86dc <_init+0xd4>
    957e:	ee06 0a90 	vmov	s13, r0
    9582:	eeb8 7be6 	vcvt.f64.s32	d7, s13
    9586:	ee37 7b07 	vadd.f64	d7, d7, d7
    958a:	ee87 7b0a 	vdiv.f64	d7, d7, d10
    958e:	ee37 7b49 	vsub.f64	d7, d7, d9
    9592:	ee27 7b08 	vmul.f64	d7, d7, d8
    9596:	ed05 7b14 	vstr	d7, [r5, #-80]	; 0xffffffb0
    959a:	f7ff e8a0 	blx	86dc <_init+0xd4>
    959e:	ee06 0a90 	vmov	s13, r0
    95a2:	eeb8 7be6 	vcvt.f64.s32	d7, s13
    95a6:	ee37 7b07 	vadd.f64	d7, d7, d7
    95aa:	ee87 7b0a 	vdiv.f64	d7, d7, d10
    95ae:	ee37 7b49 	vsub.f64	d7, d7, d9
    95b2:	ee27 7b08 	vmul.f64	d7, d7, d8
    95b6:	ed05 7b12 	vstr	d7, [r5, #-72]	; 0xffffffb8
    95ba:	f7ff e890 	blx	86dc <_init+0xd4>
    95be:	ee06 0a90 	vmov	s13, r0
    95c2:	1d73      	adds	r3, r6, #5
    95c4:	eeb8 7be6 	vcvt.f64.s32	d7, s13
    95c8:	4598      	cmp	r8, r3
    95ca:	4626      	mov	r6, r4
    95cc:	ee37 7b07 	vadd.f64	d7, d7, d7
    95d0:	ee87 7b0a 	vdiv.f64	d7, d7, d10
    95d4:	ee37 7b49 	vsub.f64	d7, d7, d9
    95d8:	ee27 7b08 	vmul.f64	d7, d7, d8
    95dc:	ed05 7b10 	vstr	d7, [r5, #-64]	; 0xffffffc0
    95e0:	d8b7      	bhi.n	9552 <gennoise+0x2a>
    95e2:	ed9f ab0f 	vldr	d10, [pc, #60]	; 9620 <gennoise+0xf8>
    95e6:	eb09 05c4 	add.w	r5, r9, r4, lsl #3
    95ea:	eeb7 9b00 	vmov.f64	d9, #112	; 0x70
    95ee:	f7ff e876 	blx	86dc <_init+0xd4>
    95f2:	ee06 0a90 	vmov	s13, r0
    95f6:	3401      	adds	r4, #1
    95f8:	eeb8 7be6 	vcvt.f64.s32	d7, s13
    95fc:	42a7      	cmp	r7, r4
    95fe:	ee37 7b07 	vadd.f64	d7, d7, d7
    9602:	ee87 7b0a 	vdiv.f64	d7, d7, d10
    9606:	ee37 7b49 	vsub.f64	d7, d7, d9
    960a:	ee27 7b08 	vmul.f64	d7, d7, d8
    960e:	eca5 7b02 	vstmia	r5!, {d7}
    9612:	d8ec      	bhi.n	95ee <gennoise+0xc6>
    9614:	ecbd 8b06 	vpop	{d8-d10}
    9618:	e8bd 83f8 	ldmia.w	sp!, {r3, r4, r5, r6, r7, r8, r9, pc}
    961c:	2400      	movs	r4, #0
    961e:	e7e0      	b.n	95e2 <gennoise+0xba>
    9620:	ffc00000 			; <UNDEFINED> instruction: 0xffc00000
    9624:	41dfffff 	ldrshmi	pc, [pc, #255]	; 972b <buildsignal+0x103>	; <UNPREDICTABLE>

00009628 <buildsignal>:
    9628:	e92d 4ff0 	stmdb	sp!, {r4, r5, r6, r7, r8, r9, sl, fp, lr}
    962c:	460d      	mov	r5, r1
    962e:	ed2d 8b06 	vpush	{d8-d10}
    9632:	b083      	sub	sp, #12
    9634:	4606      	mov	r6, r0
    9636:	4698      	mov	r8, r3
    9638:	9201      	str	r2, [sp, #4]
    963a:	9f12      	ldr	r7, [sp, #72]	; 0x48
    963c:	2900      	cmp	r1, #0
    963e:	d072      	beq.n	9726 <buildsignal+0xfe>
    9640:	2904      	cmp	r1, #4
    9642:	eeb0 8b40 	vmov.f64	d8, d0
    9646:	f1a1 0b03 	sub.w	fp, r1, #3
    964a:	f240 80dc 	bls.w	9806 <buildsignal+0x1de>
    964e:	ed9f ab70 	vldr	d10, [pc, #448]	; 9810 <buildsignal+0x1e8>
    9652:	f100 0a38 	add.w	sl, r0, #56	; 0x38
    9656:	f04f 0900 	mov.w	r9, #0
    965a:	eeb7 9b00 	vmov.f64	d9, #112	; 0x70
    965e:	f7ff e83e 	blx	86dc <_init+0xd4>
    9662:	ee06 0a90 	vmov	s13, r0
    9666:	f109 0404 	add.w	r4, r9, #4
    966a:	eeb8 7be6 	vcvt.f64.s32	d7, s13
    966e:	f89a f000 	pld	[sl]
    9672:	f10a 0a20 	add.w	sl, sl, #32
    9676:	ee37 7b07 	vadd.f64	d7, d7, d7
    967a:	ee87 7b0a 	vdiv.f64	d7, d7, d10
    967e:	ee37 7b49 	vsub.f64	d7, d7, d9
    9682:	ee28 7b07 	vmul.f64	d7, d8, d7
    9686:	ed0a 7b16 	vstr	d7, [sl, #-88]	; 0xffffffa8
    968a:	f7ff e828 	blx	86dc <_init+0xd4>
    968e:	ee06 0a90 	vmov	s13, r0
    9692:	eeb8 7be6 	vcvt.f64.s32	d7, s13
    9696:	ee37 7b07 	vadd.f64	d7, d7, d7
    969a:	ee87 7b0a 	vdiv.f64	d7, d7, d10
    969e:	ee37 7b49 	vsub.f64	d7, d7, d9
    96a2:	ee28 7b07 	vmul.f64	d7, d8, d7
    96a6:	ed0a 7b14 	vstr	d7, [sl, #-80]	; 0xffffffb0
    96aa:	f7ff e818 	blx	86dc <_init+0xd4>
    96ae:	ee06 0a90 	vmov	s13, r0
    96b2:	eeb8 7be6 	vcvt.f64.s32	d7, s13
    96b6:	ee37 7b07 	vadd.f64	d7, d7, d7
    96ba:	ee87 7b0a 	vdiv.f64	d7, d7, d10
    96be:	ee37 7b49 	vsub.f64	d7, d7, d9
    96c2:	ee28 7b07 	vmul.f64	d7, d8, d7
    96c6:	ed0a 7b12 	vstr	d7, [sl, #-72]	; 0xffffffb8
    96ca:	f7ff e808 	blx	86dc <_init+0xd4>
    96ce:	ee06 0a90 	vmov	s13, r0
    96d2:	f109 0205 	add.w	r2, r9, #5
    96d6:	eeb8 7be6 	vcvt.f64.s32	d7, s13
    96da:	455a      	cmp	r2, fp
    96dc:	46a1      	mov	r9, r4
    96de:	ee37 7b07 	vadd.f64	d7, d7, d7
    96e2:	ee87 7b0a 	vdiv.f64	d7, d7, d10
    96e6:	ee37 7b49 	vsub.f64	d7, d7, d9
    96ea:	ee28 7b07 	vmul.f64	d7, d8, d7
    96ee:	ed0a 7b10 	vstr	d7, [sl, #-64]	; 0xffffffc0
    96f2:	d3b4      	bcc.n	965e <buildsignal+0x36>
    96f4:	ed9f ab46 	vldr	d10, [pc, #280]	; 9810 <buildsignal+0x1e8>
    96f8:	eb06 09c4 	add.w	r9, r6, r4, lsl #3
    96fc:	eeb7 9b00 	vmov.f64	d9, #112	; 0x70
    9700:	f7fe efec 	blx	86dc <_init+0xd4>
    9704:	ee06 0a90 	vmov	s13, r0
    9708:	3401      	adds	r4, #1
    970a:	eeb8 7be6 	vcvt.f64.s32	d7, s13
    970e:	42a5      	cmp	r5, r4
    9710:	ee37 7b07 	vadd.f64	d7, d7, d7
    9714:	ee87 7b0a 	vdiv.f64	d7, d7, d10
    9718:	ee37 7b49 	vsub.f64	d7, d7, d9
    971c:	ee28 7b07 	vmul.f64	d7, d8, d7
    9720:	eca9 7b02 	vstmia	r9!, {d7}
    9724:	d8ec      	bhi.n	9700 <buildsignal+0xd8>
    9726:	f1b8 0f00 	cmp.w	r8, #0
    972a:	d067      	beq.n	97fc <buildsignal+0x1d4>
    972c:	f1b8 0f04 	cmp.w	r8, #4
    9730:	f1a8 0903 	sub.w	r9, r8, #3
    9734:	d969      	bls.n	980a <buildsignal+0x1e2>
    9736:	9b01      	ldr	r3, [sp, #4]
    9738:	f107 0a01 	add.w	sl, r7, #1
    973c:	f103 0b40 	add.w	fp, r3, #64	; 0x40
    9740:	f1c7 0303 	rsb	r3, r7, #3
    9744:	9300      	str	r3, [sp, #0]
    9746:	f10a 30ff 	add.w	r0, sl, #4294967295
    974a:	4629      	mov	r1, r5
    974c:	f000 fbc2 	bl	9ed4 <__aeabi_uidivmod>
    9750:	eb06 0ec1 	add.w	lr, r6, r1, lsl #3
    9754:	ed1b 7b10 	vldr	d7, [fp, #-64]	; 0xffffffc0
    9758:	f89b f000 	pld	[fp]
    975c:	4650      	mov	r0, sl
    975e:	ed9e 6b00 	vldr	d6, [lr]
    9762:	4629      	mov	r1, r5
    9764:	9c00      	ldr	r4, [sp, #0]
    9766:	f10b 0b20 	add.w	fp, fp, #32
    976a:	ee36 7b07 	vadd.f64	d7, d6, d7
    976e:	4454      	add	r4, sl
    9770:	ed8e 7b00 	vstr	d7, [lr]
    9774:	f000 fbae 	bl	9ed4 <__aeabi_uidivmod>
    9778:	eb06 0ec1 	add.w	lr, r6, r1, lsl #3
    977c:	ed1b 7b16 	vldr	d7, [fp, #-88]	; 0xffffffa8
    9780:	f10a 0001 	add.w	r0, sl, #1
    9784:	ed9e 6b00 	vldr	d6, [lr]
    9788:	4629      	mov	r1, r5
    978a:	ee36 7b07 	vadd.f64	d7, d6, d7
    978e:	ed8e 7b00 	vstr	d7, [lr]
    9792:	f000 fb9f 	bl	9ed4 <__aeabi_uidivmod>
    9796:	eb06 0ec1 	add.w	lr, r6, r1, lsl #3
    979a:	ed1b 7b14 	vldr	d7, [fp, #-80]	; 0xffffffb0
    979e:	f10a 0002 	add.w	r0, sl, #2
    97a2:	ed9e 6b00 	vldr	d6, [lr]
    97a6:	4629      	mov	r1, r5
    97a8:	f10a 0a04 	add.w	sl, sl, #4
    97ac:	ee36 7b07 	vadd.f64	d7, d6, d7
    97b0:	ed8e 7b00 	vstr	d7, [lr]
    97b4:	f000 fb8e 	bl	9ed4 <__aeabi_uidivmod>
    97b8:	eb06 01c1 	add.w	r1, r6, r1, lsl #3
    97bc:	ed1b 6b12 	vldr	d6, [fp, #-72]	; 0xffffffb8
    97c0:	ebc7 000a 	rsb	r0, r7, sl
    97c4:	ed91 7b00 	vldr	d7, [r1]
    97c8:	4581      	cmp	r9, r0
    97ca:	ee37 7b06 	vadd.f64	d7, d7, d6
    97ce:	ed81 7b00 	vstr	d7, [r1]
    97d2:	d8b8      	bhi.n	9746 <buildsignal+0x11e>
    97d4:	9b01      	ldr	r3, [sp, #4]
    97d6:	eb03 0ac4 	add.w	sl, r3, r4, lsl #3
    97da:	19e0      	adds	r0, r4, r7
    97dc:	4629      	mov	r1, r5
    97de:	f000 fb79 	bl	9ed4 <__aeabi_uidivmod>
    97e2:	eb06 01c1 	add.w	r1, r6, r1, lsl #3
    97e6:	ecba 6b02 	vldmia	sl!, {d6}
    97ea:	3401      	adds	r4, #1
    97ec:	ed91 7b00 	vldr	d7, [r1]
    97f0:	45a0      	cmp	r8, r4
    97f2:	ee37 7b06 	vadd.f64	d7, d7, d6
    97f6:	ed81 7b00 	vstr	d7, [r1]
    97fa:	d8ee      	bhi.n	97da <buildsignal+0x1b2>
    97fc:	b003      	add	sp, #12
    97fe:	ecbd 8b06 	vpop	{d8-d10}
    9802:	e8bd 8ff0 	ldmia.w	sp!, {r4, r5, r6, r7, r8, r9, sl, fp, pc}
    9806:	2400      	movs	r4, #0
    9808:	e774      	b.n	96f4 <buildsignal+0xcc>
    980a:	2400      	movs	r4, #0
    980c:	e7e2      	b.n	97d4 <buildsignal+0x1ac>
    980e:	bf00      	nop
    9810:	ffc00000 			; <UNDEFINED> instruction: 0xffc00000
    9814:	41dfffff 	ldrshmi	pc, [pc, #255]	; 991b <scalesig+0xf>	; <UNPREDICTABLE>

00009818 <findmax>:
    9818:	2900      	cmp	r1, #0
    981a:	d074      	beq.n	9906 <findmax+0xee>
    981c:	2904      	cmp	r1, #4
    981e:	e92d 41f0 	stmdb	sp!, {r4, r5, r6, r7, r8, lr}
    9822:	ed90 7b00 	vldr	d7, [r0]
    9826:	f1a1 0803 	sub.w	r8, r1, #3
    982a:	f04f 0200 	mov.w	r2, #0
    982e:	d968      	bls.n	9902 <findmax+0xea>
    9830:	f100 0698 	add.w	r6, r0, #152	; 0x98
    9834:	4613      	mov	r3, r2
    9836:	f100 0418 	add.w	r4, r0, #24
    983a:	2501      	movs	r5, #1
    983c:	ed14 4b06 	vldr	d4, [r4, #-24]	; 0xffffffe8
    9840:	1c9f      	adds	r7, r3, #2
    9842:	ed14 6b04 	vldr	d6, [r4, #-16]
    9846:	f103 0e03 	add.w	lr, r3, #3
    984a:	eeb0 3bc7 	vabs.f64	d3, d7
    984e:	3420      	adds	r4, #32
    9850:	ed14 5b0a 	vldr	d5, [r4, #-40]	; 0xffffffd8
    9854:	eeb0 2bc4 	vabs.f64	d2, d4
    9858:	eeb4 2bc3 	vcmpe.f64	d2, d3
    985c:	eef1 fa10 	vmrs	APSR_nzcv, fpscr
    9860:	bfc8      	it	gt
    9862:	eeb0 7b44 	vmovgt.f64	d7, d4
    9866:	bfc8      	it	gt
    9868:	461a      	movgt	r2, r3
    986a:	eeb0 4bc7 	vabs.f64	d4, d7
    986e:	3304      	adds	r3, #4
    9870:	eeb0 3bc6 	vabs.f64	d3, d6
    9874:	eeb4 3bc4 	vcmpe.f64	d3, d4
    9878:	eef1 fa10 	vmrs	APSR_nzcv, fpscr
    987c:	bfc8      	it	gt
    987e:	eeb0 7b46 	vmovgt.f64	d7, d6
    9882:	bfd8      	it	le
    9884:	4694      	movle	ip, r2
    9886:	eeb0 4bc7 	vabs.f64	d4, d7
    988a:	bfc8      	it	gt
    988c:	46ac      	movgt	ip, r5
    988e:	ed16 6b20 	vldr	d6, [r6, #-128]	; 0xffffff80
    9892:	3504      	adds	r5, #4
    9894:	eeb0 3bc5 	vabs.f64	d3, d5
    9898:	4672      	mov	r2, lr
    989a:	eeb4 3bc4 	vcmpe.f64	d3, d4
    989e:	eef1 fa10 	vmrs	APSR_nzcv, fpscr
    98a2:	bfc8      	it	gt
    98a4:	eeb0 7b45 	vmovgt.f64	d7, d5
    98a8:	bfd8      	it	le
    98aa:	4667      	movle	r7, ip
    98ac:	eeb0 5bc7 	vabs.f64	d5, d7
    98b0:	eeb0 4bc6 	vabs.f64	d4, d6
    98b4:	eeb4 4bc5 	vcmpe.f64	d4, d5
    98b8:	eef1 fa10 	vmrs	APSR_nzcv, fpscr
    98bc:	bfd8      	it	le
    98be:	463a      	movle	r2, r7
    98c0:	bfc8      	it	gt
    98c2:	eeb0 7b46 	vmovgt.f64	d7, d6
    98c6:	4545      	cmp	r5, r8
    98c8:	f896 f000 	pld	[r6]
    98cc:	f106 0620 	add.w	r6, r6, #32
    98d0:	d3b4      	bcc.n	983c <findmax+0x24>
    98d2:	eb00 00c3 	add.w	r0, r0, r3, lsl #3
    98d6:	ecb0 6b02 	vldmia	r0!, {d6}
    98da:	eeb0 5bc7 	vabs.f64	d5, d7
    98de:	eeb0 4bc6 	vabs.f64	d4, d6
    98e2:	eeb4 4bc5 	vcmpe.f64	d4, d5
    98e6:	eef1 fa10 	vmrs	APSR_nzcv, fpscr
    98ea:	bfc8      	it	gt
    98ec:	461a      	movgt	r2, r3
    98ee:	f103 0301 	add.w	r3, r3, #1
    98f2:	bfc8      	it	gt
    98f4:	eeb0 7b46 	vmovgt.f64	d7, d6
    98f8:	428b      	cmp	r3, r1
    98fa:	d3ec      	bcc.n	98d6 <findmax+0xbe>
    98fc:	4610      	mov	r0, r2
    98fe:	e8bd 81f0 	ldmia.w	sp!, {r4, r5, r6, r7, r8, pc}
    9902:	4613      	mov	r3, r2
    9904:	e7e5      	b.n	98d2 <findmax+0xba>
    9906:	4608      	mov	r0, r1
    9908:	4770      	bx	lr
    990a:	bf00      	nop

0000990c <scalesig>:
    990c:	e92d 4ff8 	stmdb	sp!, {r3, r4, r5, r6, r7, r8, r9, sl, fp, lr}
    9910:	460f      	mov	r7, r1
    9912:	ed2d 8b02 	vpush	{d8}
    9916:	4681      	mov	r9, r0
    9918:	4698      	mov	r8, r3
    991a:	ed90 7b00 	vldr	d7, [r0]
    991e:	2900      	cmp	r1, #0
    9920:	d057      	beq.n	99d2 <scalesig+0xc6>
    9922:	2904      	cmp	r1, #4
    9924:	f1a1 0003 	sub.w	r0, r1, #3
    9928:	f240 80cc 	bls.w	9ac4 <scalesig+0x1b8>
    992c:	f109 0518 	add.w	r5, r9, #24
    9930:	2300      	movs	r3, #0
    9932:	ed15 4b06 	vldr	d4, [r5, #-24]	; 0xffffffe8
    9936:	462e      	mov	r6, r5
    9938:	ed15 6b04 	vldr	d6, [r5, #-16]
    993c:	1d59      	adds	r1, r3, #5
    993e:	eeb0 3bc7 	vabs.f64	d3, d7
    9942:	1d1c      	adds	r4, r3, #4
    9944:	ed15 5b02 	vldr	d5, [r5, #-8]
    9948:	4623      	mov	r3, r4
    994a:	eeb0 2bc4 	vabs.f64	d2, d4
    994e:	eeb4 2bc3 	vcmpe.f64	d2, d3
    9952:	eef1 fa10 	vmrs	APSR_nzcv, fpscr
    9956:	bfc8      	it	gt
    9958:	eeb0 7b44 	vmovgt.f64	d7, d4
    995c:	eeb0 4bc7 	vabs.f64	d4, d7
    9960:	eeb0 3bc6 	vabs.f64	d3, d6
    9964:	eeb4 3bc4 	vcmpe.f64	d3, d4
    9968:	eef1 fa10 	vmrs	APSR_nzcv, fpscr
    996c:	bfc8      	it	gt
    996e:	eeb0 7b46 	vmovgt.f64	d7, d6
    9972:	eeb0 4bc7 	vabs.f64	d4, d7
    9976:	eeb0 3bc5 	vabs.f64	d3, d5
    997a:	ed96 6b00 	vldr	d6, [r6]
    997e:	eeb4 3bc4 	vcmpe.f64	d3, d4
    9982:	eef1 fa10 	vmrs	APSR_nzcv, fpscr
    9986:	bfc8      	it	gt
    9988:	eeb0 7b45 	vmovgt.f64	d7, d5
    998c:	eeb0 5bc7 	vabs.f64	d5, d7
    9990:	eeb0 4bc6 	vabs.f64	d4, d6
    9994:	eeb4 4bc5 	vcmpe.f64	d4, d5
    9998:	eef1 fa10 	vmrs	APSR_nzcv, fpscr
    999c:	bfc8      	it	gt
    999e:	eeb0 7b46 	vmovgt.f64	d7, d6
    99a2:	4288      	cmp	r0, r1
    99a4:	f895 f088 	pld	[r5, #136]	; 0x88
    99a8:	f105 0520 	add.w	r5, r5, #32
    99ac:	d8c1      	bhi.n	9932 <scalesig+0x26>
    99ae:	eb09 03c4 	add.w	r3, r9, r4, lsl #3
    99b2:	ecb3 6b02 	vldmia	r3!, {d6}
    99b6:	3401      	adds	r4, #1
    99b8:	eeb0 5bc7 	vabs.f64	d5, d7
    99bc:	eeb0 4bc6 	vabs.f64	d4, d6
    99c0:	eeb4 4bc5 	vcmpe.f64	d4, d5
    99c4:	eef1 fa10 	vmrs	APSR_nzcv, fpscr
    99c8:	bfc8      	it	gt
    99ca:	eeb0 7b46 	vmovgt.f64	d7, d6
    99ce:	42a7      	cmp	r7, r4
    99d0:	d8ef      	bhi.n	99b2 <scalesig+0xa6>
    99d2:	eeb5 7bc0 	vcmpe.f64	d7, #0.0
    99d6:	eef1 fa10 	vmrs	APSR_nzcv, fpscr
    99da:	bfcb      	itete	gt
    99dc:	2301      	movgt	r3, #1
    99de:	f04f 33ff 	movle.w	r3, #4294967295
    99e2:	fa03 f202 	lslgt.w	r2, r3, r2
    99e6:	4093      	lslle	r3, r2
    99e8:	bfc9      	itett	gt
    99ea:	f102 32ff 	addgt.w	r2, r2, #4294967295
    99ee:	ee08 3a10 	vmovle	s16, r3
    99f2:	ee06 2a90 	vmovgt	s13, r2
    99f6:	eeb8 8be6 	vcvtgt.f64.s32	d8, s13
    99fa:	bfd8      	it	le
    99fc:	eeb8 8bc8 	vcvtle.f64.s32	d8, s16
    9a00:	ee88 8b07 	vdiv.f64	d8, d8, d7
    9a04:	2f00      	cmp	r7, #0
    9a06:	d059      	beq.n	9abc <scalesig+0x1b0>
    9a08:	2f04      	cmp	r7, #4
    9a0a:	f1a7 0a03 	sub.w	sl, r7, #3
    9a0e:	d95b      	bls.n	9ac8 <scalesig+0x1bc>
    9a10:	f109 0640 	add.w	r6, r9, #64	; 0x40
    9a14:	f108 0501 	add.w	r5, r8, #1
    9a18:	f1c8 0b03 	rsb	fp, r8, #3
    9a1c:	ed16 0b10 	vldr	d0, [r6, #-64]	; 0xffffffc0
    9a20:	eb0b 0405 	add.w	r4, fp, r5
    9a24:	f896 f000 	pld	[r6]
    9a28:	3504      	adds	r5, #4
    9a2a:	3620      	adds	r6, #32
    9a2c:	ee28 0b00 	vmul.f64	d0, d8, d0
    9a30:	f7fe ee18 	blx	8664 <_init+0x5c>
    9a34:	eebd 0bc0 	vcvt.s32.f64	s0, d0
    9a38:	ee10 3a10 	vmov	r3, s0
    9a3c:	b2db      	uxtb	r3, r3
    9a3e:	f805 3c05 	strb.w	r3, [r5, #-5]
    9a42:	ed16 0b16 	vldr	d0, [r6, #-88]	; 0xffffffa8
    9a46:	ee28 0b00 	vmul.f64	d0, d8, d0
    9a4a:	f7fe ee0c 	blx	8664 <_init+0x5c>
    9a4e:	eebd 0bc0 	vcvt.s32.f64	s0, d0
    9a52:	ee10 3a10 	vmov	r3, s0
    9a56:	b2db      	uxtb	r3, r3
    9a58:	f805 3c04 	strb.w	r3, [r5, #-4]
    9a5c:	ed16 0b14 	vldr	d0, [r6, #-80]	; 0xffffffb0
    9a60:	ee28 0b00 	vmul.f64	d0, d8, d0
    9a64:	f7fe edfe 	blx	8664 <_init+0x5c>
    9a68:	eebd 0bc0 	vcvt.s32.f64	s0, d0
    9a6c:	ee10 3a10 	vmov	r3, s0
    9a70:	b2db      	uxtb	r3, r3
    9a72:	f805 3c03 	strb.w	r3, [r5, #-3]
    9a76:	ed16 0b12 	vldr	d0, [r6, #-72]	; 0xffffffb8
    9a7a:	ee28 0b00 	vmul.f64	d0, d8, d0
    9a7e:	f7fe edf2 	blx	8664 <_init+0x5c>
    9a82:	eebd 0bc0 	vcvt.s32.f64	s0, d0
    9a86:	ee10 3a10 	vmov	r3, s0
    9a8a:	b2db      	uxtb	r3, r3
    9a8c:	f805 3c02 	strb.w	r3, [r5, #-2]
    9a90:	ebc8 0305 	rsb	r3, r8, r5
    9a94:	459a      	cmp	sl, r3
    9a96:	d8c1      	bhi.n	9a1c <scalesig+0x110>
    9a98:	eb09 05c4 	add.w	r5, r9, r4, lsl #3
    9a9c:	ecb5 0b02 	vldmia	r5!, {d0}
    9aa0:	ee20 0b08 	vmul.f64	d0, d0, d8
    9aa4:	f7fe edde 	blx	8664 <_init+0x5c>
    9aa8:	eebd 0bc0 	vcvt.s32.f64	s0, d0
    9aac:	ee10 3a10 	vmov	r3, s0
    9ab0:	b2db      	uxtb	r3, r3
    9ab2:	f808 3004 	strb.w	r3, [r8, r4]
    9ab6:	3401      	adds	r4, #1
    9ab8:	42a7      	cmp	r7, r4
    9aba:	d8ef      	bhi.n	9a9c <scalesig+0x190>
    9abc:	ecbd 8b02 	vpop	{d8}
    9ac0:	e8bd 8ff8 	ldmia.w	sp!, {r3, r4, r5, r6, r7, r8, r9, sl, fp, pc}
    9ac4:	2400      	movs	r4, #0
    9ac6:	e772      	b.n	99ae <scalesig+0xa2>
    9ac8:	2400      	movs	r4, #0
    9aca:	e7e5      	b.n	9a98 <scalesig+0x18c>

00009acc <samplesave>:
    9acc:	b570      	push	{r4, r5, r6, lr}
    9ace:	460e      	mov	r6, r1
    9ad0:	f649 7174 	movw	r1, #40820	; 0x9f74
    9ad4:	4604      	mov	r4, r0
    9ad6:	f2c0 0100 	movt	r1, #0
    9ada:	4610      	mov	r0, r2
    9adc:	f7fe edb0 	blx	8640 <_init+0x38>
    9ae0:	4605      	mov	r5, r0
    9ae2:	b166      	cbz	r6, 9afe <samplesave+0x32>
    9ae4:	4426      	add	r6, r4
    9ae6:	f814 2b01 	ldrb.w	r2, [r4], #1
    9aea:	f649 7178 	movw	r1, #40824	; 0x9f78
    9aee:	f2c0 0100 	movt	r1, #0
    9af2:	4628      	mov	r0, r5
    9af4:	b252      	sxtb	r2, r2
    9af6:	f7fe edec 	blx	86d0 <_init+0xc8>
    9afa:	42b4      	cmp	r4, r6
    9afc:	d1f3      	bne.n	9ae6 <samplesave+0x1a>
    9afe:	4628      	mov	r0, r5
    9b00:	e8bd 4070 	ldmia.w	sp!, {r4, r5, r6, lr}
    9b04:	f7fe bdf0 	b.w	86e8 <_init+0xe0>

00009b08 <bulkcorrelate>:
    9b08:	e92d 4ff0 	stmdb	sp!, {r4, r5, r6, r7, r8, r9, sl, fp, lr}
    9b0c:	b087      	sub	sp, #28
    9b0e:	9302      	str	r3, [sp, #8]
    9b10:	9b11      	ldr	r3, [sp, #68]	; 0x44
    9b12:	2900      	cmp	r1, #0
    9b14:	d03b      	beq.n	9b8e <bulkcorrelate+0x86>
    9b16:	eb03 0181 	add.w	r1, r3, r1, lsl #2
    9b1a:	4680      	mov	r8, r0
    9b1c:	4614      	mov	r4, r2
    9b1e:	9304      	str	r3, [sp, #16]
    9b20:	2700      	movs	r7, #0
    9b22:	9105      	str	r1, [sp, #20]
    9b24:	2c00      	cmp	r4, #0
    9b26:	d035      	beq.n	9b94 <bulkcorrelate+0x8c>
    9b28:	2200      	movs	r2, #0
    9b2a:	4691      	mov	r9, r2
    9b2c:	9203      	str	r2, [sp, #12]
    9b2e:	9201      	str	r2, [sp, #4]
    9b30:	9b10      	ldr	r3, [sp, #64]	; 0x40
    9b32:	b1fb      	cbz	r3, 9b74 <bulkcorrelate+0x6c>
    9b34:	9a02      	ldr	r2, [sp, #8]
    9b36:	461e      	mov	r6, r3
    9b38:	444e      	add	r6, r9
    9b3a:	46ca      	mov	sl, r9
    9b3c:	f04f 0b00 	mov.w	fp, #0
    9b40:	ebc9 0502 	rsb	r5, r9, r2
    9b44:	4650      	mov	r0, sl
    9b46:	4621      	mov	r1, r4
    9b48:	f000 f9c4 	bl	9ed4 <__aeabi_uidivmod>
    9b4c:	4439      	add	r1, r7
    9b4e:	f818 2001 	ldrb.w	r2, [r8, r1]
    9b52:	f81a 3005 	ldrb.w	r3, [sl, r5]
    9b56:	f10a 0a01 	add.w	sl, sl, #1
    9b5a:	4556      	cmp	r6, sl
    9b5c:	b252      	sxtb	r2, r2
    9b5e:	b25b      	sxtb	r3, r3
    9b60:	fb12 bb03 	smlabb	fp, r2, r3, fp
    9b64:	d1ee      	bne.n	9b44 <bulkcorrelate+0x3c>
    9b66:	9a01      	ldr	r2, [sp, #4]
    9b68:	4593      	cmp	fp, r2
    9b6a:	bfc4      	itt	gt
    9b6c:	f8cd b004 	strgt.w	fp, [sp, #4]
    9b70:	f8cd 900c 	strgt.w	r9, [sp, #12]
    9b74:	f109 0901 	add.w	r9, r9, #1
    9b78:	45a1      	cmp	r9, r4
    9b7a:	d1d9      	bne.n	9b30 <bulkcorrelate+0x28>
    9b7c:	9a04      	ldr	r2, [sp, #16]
    9b7e:	4427      	add	r7, r4
    9b80:	9b03      	ldr	r3, [sp, #12]
    9b82:	f842 3b04 	str.w	r3, [r2], #4
    9b86:	9b05      	ldr	r3, [sp, #20]
    9b88:	9204      	str	r2, [sp, #16]
    9b8a:	429a      	cmp	r2, r3
    9b8c:	d1ca      	bne.n	9b24 <bulkcorrelate+0x1c>
    9b8e:	b007      	add	sp, #28
    9b90:	e8bd 8ff0 	ldmia.w	sp!, {r4, r5, r6, r7, r8, r9, sl, fp, pc}
    9b94:	9403      	str	r4, [sp, #12]
    9b96:	e7f1      	b.n	9b7c <bulkcorrelate+0x74>

00009b98 <hw_bulkcorrelate>:
    9b98:	e92d 4ff0 	stmdb	sp!, {r4, r5, r6, r7, r8, r9, sl, fp, lr}
    9b9c:	f242 228c 	movw	r2, #8844	; 0x228c
    9ba0:	b083      	sub	sp, #12
    9ba2:	f2c0 0201 	movt	r2, #1
    9ba6:	f04f 0a00 	mov.w	sl, #0
    9baa:	4684      	mov	ip, r0
    9bac:	f8dd b034 	ldr.w	fp, [sp, #52]	; 0x34
    9bb0:	4655      	mov	r5, sl
    9bb2:	681c      	ldr	r4, [r3, #0]
    9bb4:	4650      	mov	r0, sl
    9bb6:	6859      	ldr	r1, [r3, #4]
    9bb8:	46d1      	mov	r9, sl
    9bba:	689e      	ldr	r6, [r3, #8]
    9bbc:	f04f 0801 	mov.w	r8, #1
    9bc0:	6812      	ldr	r2, [r2, #0]
    9bc2:	68db      	ldr	r3, [r3, #12]
    9bc4:	6014      	str	r4, [r2, #0]
    9bc6:	6051      	str	r1, [r2, #4]
    9bc8:	6096      	str	r6, [r2, #8]
    9bca:	60d3      	str	r3, [r2, #12]
    9bcc:	4604      	mov	r4, r0
    9bce:	4661      	mov	r1, ip
    9bd0:	2300      	movs	r3, #0
    9bd2:	6908      	ldr	r0, [r1, #16]
    9bd4:	f8d1 e004 	ldr.w	lr, [r1, #4]
    9bd8:	688f      	ldr	r7, [r1, #8]
    9bda:	9001      	str	r0, [sp, #4]
    9bdc:	f85c 0003 	ldr.w	r0, [ip, r3]
    9be0:	68ce      	ldr	r6, [r1, #12]
    9be2:	6110      	str	r0, [r2, #16]
    9be4:	9801      	ldr	r0, [sp, #4]
    9be6:	f8c2 e014 	str.w	lr, [r2, #20]
    9bea:	6197      	str	r7, [r2, #24]
    9bec:	61d6      	str	r6, [r2, #28]
    9bee:	6210      	str	r0, [r2, #32]
    9bf0:	f8c2 8028 	str.w	r8, [r2, #40]	; 0x28
    9bf4:	6ad0      	ldr	r0, [r2, #44]	; 0x2c
    9bf6:	2800      	cmp	r0, #0
    9bf8:	d0fc      	beq.n	9bf4 <hw_bulkcorrelate+0x5c>
    9bfa:	f8c2 9028 	str.w	r9, [r2, #40]	; 0x28
    9bfe:	6ad0      	ldr	r0, [r2, #44]	; 0x2c
    9c00:	2801      	cmp	r0, #1
    9c02:	d0fc      	beq.n	9bfe <hw_bulkcorrelate+0x66>
    9c04:	6c10      	ldr	r0, [r2, #64]	; 0x40
    9c06:	3104      	adds	r1, #4
    9c08:	f8d2 e044 	ldr.w	lr, [r2, #68]	; 0x44
    9c0c:	6c97      	ldr	r7, [r2, #72]	; 0x48
    9c0e:	42a0      	cmp	r0, r4
    9c10:	6cd6      	ldr	r6, [r2, #76]	; 0x4c
    9c12:	bfd4      	ite	le
    9c14:	4620      	movle	r0, r4
    9c16:	461d      	movgt	r5, r3
    9c18:	4570      	cmp	r0, lr
    9c1a:	bfbc      	itt	lt
    9c1c:	4670      	movlt	r0, lr
    9c1e:	1c5d      	addlt	r5, r3, #1
    9c20:	42b8      	cmp	r0, r7
    9c22:	bfbc      	itt	lt
    9c24:	4638      	movlt	r0, r7
    9c26:	1c9d      	addlt	r5, r3, #2
    9c28:	42b0      	cmp	r0, r6
    9c2a:	bfb8      	it	lt
    9c2c:	1cdd      	addlt	r5, r3, #3
    9c2e:	f103 0304 	add.w	r3, r3, #4
    9c32:	bfb8      	it	lt
    9c34:	4630      	movlt	r0, r6
    9c36:	2b80      	cmp	r3, #128	; 0x80
    9c38:	d001      	beq.n	9c3e <hw_bulkcorrelate+0xa6>
    9c3a:	4604      	mov	r4, r0
    9c3c:	e7c9      	b.n	9bd2 <hw_bulkcorrelate+0x3a>
    9c3e:	f84b 500a 	str.w	r5, [fp, sl]
    9c42:	f10a 0a04 	add.w	sl, sl, #4
    9c46:	f5ba 5f80 	cmp.w	sl, #4096	; 0x1000
    9c4a:	f10c 0c80 	add.w	ip, ip, #128	; 0x80
    9c4e:	d1bd      	bne.n	9bcc <hw_bulkcorrelate+0x34>
    9c50:	b003      	add	sp, #12
    9c52:	e8bd 8ff0 	ldmia.w	sp!, {r4, r5, r6, r7, r8, r9, sl, fp, pc}
    9c56:	bf00      	nop

00009c58 <median>:
    9c58:	f249 33e1 	movw	r3, #37857	; 0x93e1
    9c5c:	b510      	push	{r4, lr}
    9c5e:	f2c0 0300 	movt	r3, #0
    9c62:	4604      	mov	r4, r0
    9c64:	2105      	movs	r1, #5
    9c66:	2208      	movs	r2, #8
    9c68:	f7fe ed4c 	blx	8704 <_init+0xfc>
    9c6c:	e9d4 0104 	ldrd	r0, r1, [r4, #16]
    9c70:	bd10      	pop	{r4, pc}
    9c72:	bf00      	nop
    9c74:	f3af 8000 	nop.w

00009c78 <__aeabi_uidiv>:
    9c78:	1e4a      	subs	r2, r1, #1
    9c7a:	bf08      	it	eq
    9c7c:	4770      	bxeq	lr
    9c7e:	f0c0 8124 	bcc.w	9eca <__aeabi_uidiv+0x252>
    9c82:	4288      	cmp	r0, r1
    9c84:	f240 8116 	bls.w	9eb4 <__aeabi_uidiv+0x23c>
    9c88:	4211      	tst	r1, r2
    9c8a:	f000 8117 	beq.w	9ebc <__aeabi_uidiv+0x244>
    9c8e:	fab0 f380 	clz	r3, r0
    9c92:	fab1 f281 	clz	r2, r1
    9c96:	eba2 0303 	sub.w	r3, r2, r3
    9c9a:	f1c3 031f 	rsb	r3, r3, #31
    9c9e:	a204      	add	r2, pc, #16	; (adr r2, 9cb0 <__aeabi_uidiv+0x38>)
    9ca0:	eb02 1303 	add.w	r3, r2, r3, lsl #4
    9ca4:	f04f 0200 	mov.w	r2, #0
    9ca8:	469f      	mov	pc, r3
    9caa:	bf00      	nop
    9cac:	f3af 8000 	nop.w
    9cb0:	ebb0 7fc1 	cmp.w	r0, r1, lsl #31
    9cb4:	bf00      	nop
    9cb6:	eb42 0202 	adc.w	r2, r2, r2
    9cba:	bf28      	it	cs
    9cbc:	eba0 70c1 	subcs.w	r0, r0, r1, lsl #31
    9cc0:	ebb0 7f81 	cmp.w	r0, r1, lsl #30
    9cc4:	bf00      	nop
    9cc6:	eb42 0202 	adc.w	r2, r2, r2
    9cca:	bf28      	it	cs
    9ccc:	eba0 7081 	subcs.w	r0, r0, r1, lsl #30
    9cd0:	ebb0 7f41 	cmp.w	r0, r1, lsl #29
    9cd4:	bf00      	nop
    9cd6:	eb42 0202 	adc.w	r2, r2, r2
    9cda:	bf28      	it	cs
    9cdc:	eba0 7041 	subcs.w	r0, r0, r1, lsl #29
    9ce0:	ebb0 7f01 	cmp.w	r0, r1, lsl #28
    9ce4:	bf00      	nop
    9ce6:	eb42 0202 	adc.w	r2, r2, r2
    9cea:	bf28      	it	cs
    9cec:	eba0 7001 	subcs.w	r0, r0, r1, lsl #28
    9cf0:	ebb0 6fc1 	cmp.w	r0, r1, lsl #27
    9cf4:	bf00      	nop
    9cf6:	eb42 0202 	adc.w	r2, r2, r2
    9cfa:	bf28      	it	cs
    9cfc:	eba0 60c1 	subcs.w	r0, r0, r1, lsl #27
    9d00:	ebb0 6f81 	cmp.w	r0, r1, lsl #26
    9d04:	bf00      	nop
    9d06:	eb42 0202 	adc.w	r2, r2, r2
    9d0a:	bf28      	it	cs
    9d0c:	eba0 6081 	subcs.w	r0, r0, r1, lsl #26
    9d10:	ebb0 6f41 	cmp.w	r0, r1, lsl #25
    9d14:	bf00      	nop
    9d16:	eb42 0202 	adc.w	r2, r2, r2
    9d1a:	bf28      	it	cs
    9d1c:	eba0 6041 	subcs.w	r0, r0, r1, lsl #25
    9d20:	ebb0 6f01 	cmp.w	r0, r1, lsl #24
    9d24:	bf00      	nop
    9d26:	eb42 0202 	adc.w	r2, r2, r2
    9d2a:	bf28      	it	cs
    9d2c:	eba0 6001 	subcs.w	r0, r0, r1, lsl #24
    9d30:	ebb0 5fc1 	cmp.w	r0, r1, lsl #23
    9d34:	bf00      	nop
    9d36:	eb42 0202 	adc.w	r2, r2, r2
    9d3a:	bf28      	it	cs
    9d3c:	eba0 50c1 	subcs.w	r0, r0, r1, lsl #23
    9d40:	ebb0 5f81 	cmp.w	r0, r1, lsl #22
    9d44:	bf00      	nop
    9d46:	eb42 0202 	adc.w	r2, r2, r2
    9d4a:	bf28      	it	cs
    9d4c:	eba0 5081 	subcs.w	r0, r0, r1, lsl #22
    9d50:	ebb0 5f41 	cmp.w	r0, r1, lsl #21
    9d54:	bf00      	nop
    9d56:	eb42 0202 	adc.w	r2, r2, r2
    9d5a:	bf28      	it	cs
    9d5c:	eba0 5041 	subcs.w	r0, r0, r1, lsl #21
    9d60:	ebb0 5f01 	cmp.w	r0, r1, lsl #20
    9d64:	bf00      	nop
    9d66:	eb42 0202 	adc.w	r2, r2, r2
    9d6a:	bf28      	it	cs
    9d6c:	eba0 5001 	subcs.w	r0, r0, r1, lsl #20
    9d70:	ebb0 4fc1 	cmp.w	r0, r1, lsl #19
    9d74:	bf00      	nop
    9d76:	eb42 0202 	adc.w	r2, r2, r2
    9d7a:	bf28      	it	cs
    9d7c:	eba0 40c1 	subcs.w	r0, r0, r1, lsl #19
    9d80:	ebb0 4f81 	cmp.w	r0, r1, lsl #18
    9d84:	bf00      	nop
    9d86:	eb42 0202 	adc.w	r2, r2, r2
    9d8a:	bf28      	it	cs
    9d8c:	eba0 4081 	subcs.w	r0, r0, r1, lsl #18
    9d90:	ebb0 4f41 	cmp.w	r0, r1, lsl #17
    9d94:	bf00      	nop
    9d96:	eb42 0202 	adc.w	r2, r2, r2
    9d9a:	bf28      	it	cs
    9d9c:	eba0 4041 	subcs.w	r0, r0, r1, lsl #17
    9da0:	ebb0 4f01 	cmp.w	r0, r1, lsl #16
    9da4:	bf00      	nop
    9da6:	eb42 0202 	adc.w	r2, r2, r2
    9daa:	bf28      	it	cs
    9dac:	eba0 4001 	subcs.w	r0, r0, r1, lsl #16
    9db0:	ebb0 3fc1 	cmp.w	r0, r1, lsl #15
    9db4:	bf00      	nop
    9db6:	eb42 0202 	adc.w	r2, r2, r2
    9dba:	bf28      	it	cs
    9dbc:	eba0 30c1 	subcs.w	r0, r0, r1, lsl #15
    9dc0:	ebb0 3f81 	cmp.w	r0, r1, lsl #14
    9dc4:	bf00      	nop
    9dc6:	eb42 0202 	adc.w	r2, r2, r2
    9dca:	bf28      	it	cs
    9dcc:	eba0 3081 	subcs.w	r0, r0, r1, lsl #14
    9dd0:	ebb0 3f41 	cmp.w	r0, r1, lsl #13
    9dd4:	bf00      	nop
    9dd6:	eb42 0202 	adc.w	r2, r2, r2
    9dda:	bf28      	it	cs
    9ddc:	eba0 3041 	subcs.w	r0, r0, r1, lsl #13
    9de0:	ebb0 3f01 	cmp.w	r0, r1, lsl #12
    9de4:	bf00      	nop
    9de6:	eb42 0202 	adc.w	r2, r2, r2
    9dea:	bf28      	it	cs
    9dec:	eba0 3001 	subcs.w	r0, r0, r1, lsl #12
    9df0:	ebb0 2fc1 	cmp.w	r0, r1, lsl #11
    9df4:	bf00      	nop
    9df6:	eb42 0202 	adc.w	r2, r2, r2
    9dfa:	bf28      	it	cs
    9dfc:	eba0 20c1 	subcs.w	r0, r0, r1, lsl #11
    9e00:	ebb0 2f81 	cmp.w	r0, r1, lsl #10
    9e04:	bf00      	nop
    9e06:	eb42 0202 	adc.w	r2, r2, r2
    9e0a:	bf28      	it	cs
    9e0c:	eba0 2081 	subcs.w	r0, r0, r1, lsl #10
    9e10:	ebb0 2f41 	cmp.w	r0, r1, lsl #9
    9e14:	bf00      	nop
    9e16:	eb42 0202 	adc.w	r2, r2, r2
    9e1a:	bf28      	it	cs
    9e1c:	eba0 2041 	subcs.w	r0, r0, r1, lsl #9
    9e20:	ebb0 2f01 	cmp.w	r0, r1, lsl #8
    9e24:	bf00      	nop
    9e26:	eb42 0202 	adc.w	r2, r2, r2
    9e2a:	bf28      	it	cs
    9e2c:	eba0 2001 	subcs.w	r0, r0, r1, lsl #8
    9e30:	ebb0 1fc1 	cmp.w	r0, r1, lsl #7
    9e34:	bf00      	nop
    9e36:	eb42 0202 	adc.w	r2, r2, r2
    9e3a:	bf28      	it	cs
    9e3c:	eba0 10c1 	subcs.w	r0, r0, r1, lsl #7
    9e40:	ebb0 1f81 	cmp.w	r0, r1, lsl #6
    9e44:	bf00      	nop
    9e46:	eb42 0202 	adc.w	r2, r2, r2
    9e4a:	bf28      	it	cs
    9e4c:	eba0 1081 	subcs.w	r0, r0, r1, lsl #6
    9e50:	ebb0 1f41 	cmp.w	r0, r1, lsl #5
    9e54:	bf00      	nop
    9e56:	eb42 0202 	adc.w	r2, r2, r2
    9e5a:	bf28      	it	cs
    9e5c:	eba0 1041 	subcs.w	r0, r0, r1, lsl #5
    9e60:	ebb0 1f01 	cmp.w	r0, r1, lsl #4
    9e64:	bf00      	nop
    9e66:	eb42 0202 	adc.w	r2, r2, r2
    9e6a:	bf28      	it	cs
    9e6c:	eba0 1001 	subcs.w	r0, r0, r1, lsl #4
    9e70:	ebb0 0fc1 	cmp.w	r0, r1, lsl #3
    9e74:	bf00      	nop
    9e76:	eb42 0202 	adc.w	r2, r2, r2
    9e7a:	bf28      	it	cs
    9e7c:	eba0 00c1 	subcs.w	r0, r0, r1, lsl #3
    9e80:	ebb0 0f81 	cmp.w	r0, r1, lsl #2
    9e84:	bf00      	nop
    9e86:	eb42 0202 	adc.w	r2, r2, r2
    9e8a:	bf28      	it	cs
    9e8c:	eba0 0081 	subcs.w	r0, r0, r1, lsl #2
    9e90:	ebb0 0f41 	cmp.w	r0, r1, lsl #1
    9e94:	bf00      	nop
    9e96:	eb42 0202 	adc.w	r2, r2, r2
    9e9a:	bf28      	it	cs
    9e9c:	eba0 0041 	subcs.w	r0, r0, r1, lsl #1
    9ea0:	ebb0 0f01 	cmp.w	r0, r1
    9ea4:	bf00      	nop
    9ea6:	eb42 0202 	adc.w	r2, r2, r2
    9eaa:	bf28      	it	cs
    9eac:	eba0 0001 	subcs.w	r0, r0, r1
    9eb0:	4610      	mov	r0, r2
    9eb2:	4770      	bx	lr
    9eb4:	bf0c      	ite	eq
    9eb6:	2001      	moveq	r0, #1
    9eb8:	2000      	movne	r0, #0
    9eba:	4770      	bx	lr
    9ebc:	fab1 f281 	clz	r2, r1
    9ec0:	f1c2 021f 	rsb	r2, r2, #31
    9ec4:	fa20 f002 	lsr.w	r0, r0, r2
    9ec8:	4770      	bx	lr
    9eca:	b108      	cbz	r0, 9ed0 <__aeabi_uidiv+0x258>
    9ecc:	f04f 30ff 	mov.w	r0, #4294967295
    9ed0:	f000 b80e 	b.w	9ef0 <__aeabi_idiv0>

00009ed4 <__aeabi_uidivmod>:
    9ed4:	2900      	cmp	r1, #0
    9ed6:	d0f8      	beq.n	9eca <__aeabi_uidiv+0x252>
    9ed8:	e92d 4003 	stmdb	sp!, {r0, r1, lr}
    9edc:	f7ff fecc 	bl	9c78 <__aeabi_uidiv>
    9ee0:	e8bd 4006 	ldmia.w	sp!, {r1, r2, lr}
    9ee4:	fb02 f300 	mul.w	r3, r2, r0
    9ee8:	eba1 0103 	sub.w	r1, r1, r3
    9eec:	4770      	bx	lr
    9eee:	bf00      	nop

00009ef0 <__aeabi_idiv0>:
    9ef0:	b502      	push	{r1, lr}
    9ef2:	f04f 0008 	mov.w	r0, #8
    9ef6:	f7fe eb98 	blx	8628 <_init+0x20>
    9efa:	bd02      	pop	{r1, pc}

00009efc <__libc_csu_init>:
    9efc:	e92d 43f8 	stmdb	sp!, {r3, r4, r5, r6, r7, r8, r9, lr}
    9f00:	4607      	mov	r7, r0
    9f02:	4e0c      	ldr	r6, [pc, #48]	; (9f34 <__libc_csu_init+0x38>)
    9f04:	4688      	mov	r8, r1
    9f06:	4691      	mov	r9, r2
    9f08:	4d0b      	ldr	r5, [pc, #44]	; (9f38 <__libc_csu_init+0x3c>)
    9f0a:	447e      	add	r6, pc
    9f0c:	f7fe eb7c 	blx	8608 <_init>
    9f10:	447d      	add	r5, pc
    9f12:	1b76      	subs	r6, r6, r5
    9f14:	10b6      	asrs	r6, r6, #2
    9f16:	d00a      	beq.n	9f2e <__libc_csu_init+0x32>
    9f18:	3d04      	subs	r5, #4
    9f1a:	2400      	movs	r4, #0
    9f1c:	3401      	adds	r4, #1
    9f1e:	f855 3f04 	ldr.w	r3, [r5, #4]!
    9f22:	4638      	mov	r0, r7
    9f24:	4641      	mov	r1, r8
    9f26:	464a      	mov	r2, r9
    9f28:	4798      	blx	r3
    9f2a:	42b4      	cmp	r4, r6
    9f2c:	d1f6      	bne.n	9f1c <__libc_csu_init+0x20>
    9f2e:	e8bd 83f8 	ldmia.w	sp!, {r3, r4, r5, r6, r7, r8, r9, pc}
    9f32:	bf00      	nop
    9f34:	000081ba 			; <UNDEFINED> instruction: 0x000081ba
    9f38:	000081ac 	andeq	r8, r0, ip, lsr #3

00009f3c <__libc_csu_fini>:
    9f3c:	4770      	bx	lr
    9f3e:	bf00      	nop

Disassembly of section .fini:

00009f40 <_fini>:
    9f40:	e92d4008 	push	{r3, lr}
    9f44:	e8bd8008 	pop	{r3, pc}

Disassembly of section .rodata:

00009f48 <_IO_stdin_used>:
    9f48:	00020001 	andeq	r0, r2, r1

00009f4c <__PRETTY_FUNCTION__.7699>:
    9f4c:	736e6567 	cmnvc	lr, #432013312	; 0x19c00000
    9f50:	00006e69 	andeq	r6, r0, r9, ror #28
    9f54:	7665642f 	strbtvc	r6, [r5], -pc, lsr #8
    9f58:	6e61722f 	cdpvs	2, 6, cr7, cr1, cr15, {1}
    9f5c:	006d6f64 	rsbeq	r6, sp, r4, ror #30
    9f60:	203e206e 	eorscs	r2, lr, lr, rrx
    9f64:	00000030 	andeq	r0, r0, r0, lsr r0
    9f68:	72726f63 	rsbsvc	r6, r2, #396	; 0x18c
    9f6c:	74616c65 	strbtvc	r6, [r1], #-3173	; 0xc65
    9f70:	00632e65 	rsbeq	r2, r3, r5, ror #28
    9f74:	00000077 	andeq	r0, r0, r7, ror r0
    9f78:	000a6425 	andeq	r6, sl, r5, lsr #8
    9f7c:	7665642f 	strbtvc	r6, [r5], -pc, lsr #8
    9f80:	6d656d2f 	stclvs	13, cr6, [r5, #-188]!	; 0xffffff44
    9f84:	00000000 	andeq	r0, r0, r0
    9f88:	4f525245 	svcmi	0x00525245
    9f8c:	63203a52 	teqvs	r0, #335872	; 0x52000
    9f90:	646c756f 	strbtvs	r7, [ip], #-1391	; 0x56f
    9f94:	746f6e20 	strbtvc	r6, [pc], #-3616	; 9f9c <__PRETTY_FUNCTION__.7699+0x50>
    9f98:	65706f20 	ldrbvs	r6, [r0, #-3872]!	; 0xf20
    9f9c:	2f22206e 	svccs	0x0022206e
    9fa0:	2f766564 	svccs	0x00766564
    9fa4:	226d656d 	rsbcs	r6, sp, #457179136	; 0x1b400000
    9fa8:	002e2e2e 	eoreq	r2, lr, lr, lsr #28
    9fac:	4f525245 	svcmi	0x00525245
    9fb0:	6d203a52 	vstmdbvs	r0!, {s6-s87}
    9fb4:	2870616d 	ldmdacs	r0!, {r0, r2, r3, r5, r6, r8, sp, lr}^
    9fb8:	61662029 	cmnvs	r6, r9, lsr #32
    9fbc:	64656c69 	strbtvs	r6, [r5], #-3177	; 0xc69
    9fc0:	002e2e2e 	eoreq	r2, lr, lr, lsr #28
    9fc4:	45464552 	strbmi	r4, [r6, #-1362]	; 0x552
    9fc8:	434e4552 	movtmi	r4, #58706	; 0xe552
    9fcc:	00000045 	andeq	r0, r0, r5, asr #32
    9fd0:	73696f4e 	cmnvc	r9, #312	; 0x138
    9fd4:	34252065 	strtcc	r2, [r5], #-101	; 0x65
    9fd8:	2066332e 	rsbcs	r3, r6, lr, lsr #6
    9fdc:	6f727265 	svcvs	0x00727265
    9fe0:	34252072 	strtcc	r2, [r5], #-114	; 0x72
    9fe4:	00000a64 	andeq	r0, r0, r4, ror #20
    9fe8:	45434341 	strbmi	r4, [r3, #-833]	; 0x341
    9fec:	4152454c 	cmpmi	r2, ip, asr #10
    9ff0:	00444554 	subeq	r4, r4, r4, asr r5
    9ff4:	73696f4e 	cmnvc	r9, #312	; 0x138
    9ff8:	34252065 	strtcc	r2, [r5], #-101	; 0x65
    9ffc:	2066332e 	rsbcs	r3, r6, lr, lsr #6
    a000:	6f727265 	svcvs	0x00727265
    a004:	34252072 	strtcc	r2, [r5], #-114	; 0x72
    a008:	65642064 	strbvs	r2, [r4, #-100]!	; 0x64
    a00c:	2061746c 	rsbcs	r7, r1, ip, ror #8
    a010:	0a643425 	beq	19170ac <__bss_end__+0x1904e14>
    a014:	00000000 	andeq	r0, r0, r0
    a018:	61746f54 	cmnvs	r4, r4, asr pc
    a01c:	7245206c 	subvc	r2, r5, #108	; 0x6c
    a020:	3a726f72 	bcc	1ca5df0 <__bss_end__+0x1c93b58>
    a024:	0a642520 	beq	19134ac <__bss_end__+0x1901214>
    a028:	00000000 	andeq	r0, r0, r0
    a02c:	74736554 	ldrbtvc	r6, [r3], #-1364	; 0x554
    a030:	636e6562 	cmnvs	lr, #411041792	; 0x18800000
    a034:	61702068 	cmnvs	r0, r8, rrx
    a038:	73657373 	cmnvc	r5, #-872415231	; 0xcc000001
    a03c:	00000021 	andeq	r0, r0, r1, lsr #32
    a040:	74736554 	ldrbtvc	r6, [r3], #-1364	; 0x554
    a044:	636e6562 	cmnvs	lr, #411041792	; 0x18800000
    a048:	61662068 	cmnvs	r6, r8, rrx
    a04c:	21736c69 	cmncs	r3, r9, ror #24
    a050:	00000000 	andeq	r0, r0, r0
    a054:	65666552 	strbvs	r6, [r6, #-1362]!	; 0x552
    a058:	636e6572 	cmnvs	lr, #478150656	; 0x1c800000
    a05c:	78452065 	stmdavc	r5, {r0, r2, r5, r6, sp}^
    a060:	74756365 	ldrbtvc	r6, [r5], #-869	; 0x365
    a064:	206e6f69 	rsbcs	r6, lr, r9, ror #30
    a068:	656d6974 	strbvs	r6, [sp, #-2420]!	; 0x974
    a06c:	6c6c2520 	cfstr64vs	mvdx2, [ip], #-128	; 0xffffff80
    a070:	00000a64 	andeq	r0, r0, r4, ror #20
    a074:	65636341 	strbvs	r6, [r3, #-833]!	; 0x341
    a078:	6172656c 	cmnvs	r2, ip, ror #10
    a07c:	20646574 	rsbcs	r6, r4, r4, ror r5
    a080:	63657845 	cmnvs	r5, #4521984	; 0x450000
    a084:	6f697475 	svcvs	0x00697475
    a088:	6974206e 	ldmdbvs	r4!, {r1, r2, r3, r5, r6, sp}^
    a08c:	2520656d 	strcs	r6, [r0, #-1389]!	; 0x56d
    a090:	0a646c6c 	beq	1925248 <__bss_end__+0x1912fb0>
    a094:	00000000 	andeq	r0, r0, r0
    a098:	4f525245 	svcmi	0x00525245
    a09c:	6d203a52 	vstmdbvs	r0!, {s6-s87}
    a0a0:	616d6e75 	smcvs	55013	; 0xd6e5
    a0a4:	20292870 	eorcs	r2, r9, r0, ror r8
    a0a8:	6c696166 	stfvse	f6, [r9], #-408	; 0xfffffe68
    a0ac:	2e2e6465 	cdpcs	4, 2, cr6, cr14, cr5, {3}
    a0b0:	0000002e 	andeq	r0, r0, lr, lsr #32

Disassembly of section .ARM.exidx:

0000a0b4 <.ARM.exidx>:
    a0b4:	7ffff24c 	svcvc	0x00fff24c
    a0b8:	00000001 	andeq	r0, r0, r1

Disassembly of section .eh_frame:

0000a0bc <__FRAME_END__>:
    a0bc:	00000000 	andeq	r0, r0, r0

Disassembly of section .init_array:

000120c0 <__frame_dummy_init_array_entry>:
   120c0:	000093bd 			; <UNDEFINED> instruction: 0x000093bd
   120c4:	00008749 	andeq	r8, r0, r9, asr #14

Disassembly of section .fini_array:

000120c8 <__do_global_dtors_aux_fini_array_entry>:
   120c8:	000093a5 	andeq	r9, r0, r5, lsr #7
   120cc:	00008739 	andeq	r8, r0, r9, lsr r7

Disassembly of section .jcr:

000120d0 <__JCR_END__>:
   120d0:	00000000 	andeq	r0, r0, r0

Disassembly of section .dynamic:

000120d4 <_DYNAMIC>:
   120d4:	00000001 	andeq	r0, r0, r1
   120d8:	00000001 	andeq	r0, r0, r1
   120dc:	00000001 	andeq	r0, r0, r1
   120e0:	0000006e 	andeq	r0, r0, lr, rrx
   120e4:	0000000c 	andeq	r0, r0, ip
   120e8:	00008608 	andeq	r8, r0, r8, lsl #12
   120ec:	0000000d 	andeq	r0, r0, sp
   120f0:	00009f40 	andeq	r9, r0, r0, asr #30
   120f4:	00000019 	andeq	r0, r0, r9, lsl r0
   120f8:	000120c0 	andeq	r2, r1, r0, asr #1
   120fc:	0000001b 	andeq	r0, r0, fp, lsl r0
   12100:	00000008 	andeq	r0, r0, r8
   12104:	0000001a 	andeq	r0, r0, sl, lsl r0
   12108:	000120c8 	andeq	r2, r1, r8, asr #1
   1210c:	0000001c 	andeq	r0, r0, ip, lsl r0
   12110:	00000008 	andeq	r0, r0, r8
   12114:	00000004 	andeq	r0, r0, r4
   12118:	00008194 	muleq	r0, r4, r1
   1211c:	00000005 	andeq	r0, r0, r5
   12120:	000083e8 	andeq	r8, r0, r8, ror #7
   12124:	00000006 	andeq	r0, r0, r6
   12128:	00008248 	andeq	r8, r0, r8, asr #4
   1212c:	0000000a 	andeq	r0, r0, sl
   12130:	000000f4 	strdeq	r0, [r0], -r4
   12134:	0000000b 	andeq	r0, r0, fp
   12138:	00000010 	andeq	r0, r0, r0, lsl r0
   1213c:	00000015 	andeq	r0, r0, r5, lsl r0
   12140:	00000000 	andeq	r0, r0, r0
   12144:	00000003 	andeq	r0, r0, r3
   12148:	000121c4 	andeq	r2, r1, r4, asr #3
   1214c:	00000002 	andeq	r0, r0, r2
   12150:	000000b0 	strheq	r0, [r0], -r0	; <UNPREDICTABLE>
   12154:	00000014 	andeq	r0, r0, r4, lsl r0
   12158:	00000011 	andeq	r0, r0, r1, lsl r0
   1215c:	00000017 	andeq	r0, r0, r7, lsl r0
   12160:	00008558 	andeq	r8, r0, r8, asr r5
   12164:	00000011 	andeq	r0, r0, r1, lsl r0
   12168:	00008550 	andeq	r8, r0, r0, asr r5
   1216c:	00000012 	andeq	r0, r0, r2, lsl r0
   12170:	00000008 	andeq	r0, r0, r8
   12174:	00000013 	andeq	r0, r0, r3, lsl r0
   12178:	00000008 	andeq	r0, r0, r8
   1217c:	6ffffffe 	svcvs	0x00fffffe
   12180:	00008510 	andeq	r8, r0, r0, lsl r5
   12184:	6fffffff 	svcvs	0x00ffffff
   12188:	00000002 	andeq	r0, r0, r2
   1218c:	6ffffff0 	svcvs	0x00fffff0
   12190:	000084dc 	ldrdeq	r8, [r0], -ip
	...

Disassembly of section .got:

000121c4 <_GLOBAL_OFFSET_TABLE_>:
   121c4:	000120d4 	ldrdeq	r2, [r1], -r4
	...
   121d0:	00008614 	andeq	r8, r0, r4, lsl r6
   121d4:	00008614 	andeq	r8, r0, r4, lsl r6
   121d8:	00008614 	andeq	r8, r0, r4, lsl r6
   121dc:	00008614 	andeq	r8, r0, r4, lsl r6
   121e0:	00008614 	andeq	r8, r0, r4, lsl r6
   121e4:	00008614 	andeq	r8, r0, r4, lsl r6
   121e8:	00008614 	andeq	r8, r0, r4, lsl r6
   121ec:	00008614 	andeq	r8, r0, r4, lsl r6
   121f0:	00008614 	andeq	r8, r0, r4, lsl r6
   121f4:	00008614 	andeq	r8, r0, r4, lsl r6
   121f8:	00008614 	andeq	r8, r0, r4, lsl r6
   121fc:	00008614 	andeq	r8, r0, r4, lsl r6
   12200:	00008614 	andeq	r8, r0, r4, lsl r6
   12204:	00008614 	andeq	r8, r0, r4, lsl r6
   12208:	00008614 	andeq	r8, r0, r4, lsl r6
   1220c:	00008614 	andeq	r8, r0, r4, lsl r6
   12210:	00008614 	andeq	r8, r0, r4, lsl r6
   12214:	00008614 	andeq	r8, r0, r4, lsl r6
   12218:	00008614 	andeq	r8, r0, r4, lsl r6
   1221c:	00008614 	andeq	r8, r0, r4, lsl r6
   12220:	00008614 	andeq	r8, r0, r4, lsl r6
   12224:	00008614 	andeq	r8, r0, r4, lsl r6
   12228:	00000000 	andeq	r0, r0, r0

Disassembly of section .data:

0001222c <__data_start>:
   1222c:	00000000 	andeq	r0, r0, r0

00012230 <__dso_handle>:
   12230:	00000000 	andeq	r0, r0, r0

00012234 <fddev>:
   12234:	ffffffff 			; <UNDEFINED> instruction: 0xffffffff

Disassembly of section .bss:

00012238 <__bss_start>:
	...

00012240 <attr.7676>:
	...

00012288 <fdi>:
   12288:	00000000 	andeq	r0, r0, r0

0001228c <corr_base>:
   1228c:	00000000 	andeq	r0, r0, r0

00012290 <virtual_base>:
   12290:	00000000 	andeq	r0, r0, r0

00012294 <bulk>:
   12294:	00000000 	andeq	r0, r0, r0

Disassembly of section .comment:

00000000 <.comment>:
   0:	3a434347 	bcc	10d0d24 <__bss_end__+0x10bea8c>
   4:	72632820 	rsbvc	r2, r3, #32, 16	; 0x200000
   8:	7473736f 	ldrbtvc	r7, [r3], #-879	; 0x36f
   c:	2d6c6f6f 	stclcs	15, cr6, [ip, #-444]!	; 0xfffffe44
  10:	6c20474e 	stcvs	7, cr4, [r0], #-312	; 0xfffffec8
  14:	72616e69 	rsbvc	r6, r1, #1680	; 0x690
  18:	2e312d6f 	cdpcs	13, 3, cr2, cr1, cr15, {3}
  1c:	312e3331 	teqcc	lr, r1, lsr r3
  20:	382e342d 	stmdacc	lr!, {r0, r2, r3, r5, sl, ip, sp}
  24:	3130322d 	teqcc	r0, sp, lsr #4
  28:	34302e34 	ldrtcc	r2, [r0], #-3636	; 0xe34
  2c:	4c202d20 	stcmi	13, cr2, [r0], #-128	; 0xffffff80
  30:	72616e69 	rsbvc	r6, r1, #1680	; 0x690
  34:	4347206f 	movtmi	r2, #28783	; 0x706f
  38:	2e342043 	cdpcs	0, 3, cr2, cr4, cr3, {2}
  3c:	30322d38 	eorscc	r2, r2, r8, lsr sp
  40:	302e3431 	eorcc	r3, lr, r1, lsr r4
  44:	34202934 	strtcc	r2, [r0], #-2356	; 0x934
  48:	332e382e 	teqcc	lr, #3014656	; 0x2e0000
  4c:	31303220 	teqcc	r0, r0, lsr #4
  50:	30343034 	eorscc	r3, r4, r4, lsr r0
  54:	70282031 	eorvc	r2, r8, r1, lsr r0
  58:	65726572 	ldrbvs	r6, [r2, #-1394]!	; 0x572
  5c:	7361656c 	cmnvc	r1, #108, 10	; 0x1b000000
  60:	Address 0x00000060 is out of bounds.


Disassembly of section .ARM.attributes:

00000000 <.ARM.attributes>:
   0:	00003441 	andeq	r3, r0, r1, asr #8
   4:	61656100 	cmnvs	r5, r0, lsl #2
   8:	01006962 	tsteq	r0, r2, ror #18
   c:	0000002a 	andeq	r0, r0, sl, lsr #32
  10:	412d3705 	teqmi	sp, r5, lsl #14
  14:	070a0600 	streq	r0, [sl, -r0, lsl #12]
  18:	09010841 	stmdbeq	r1, {r0, r6, fp}
  1c:	12040a02 	andne	r0, r4, #8192	; 0x2000
  20:	14011304 	strne	r1, [r1], #-772	; 0x304
  24:	17011501 	strne	r1, [r1, -r1, lsl #10]
  28:	19011803 	stmdbne	r1, {r0, r1, fp, ip}
  2c:	1b021a01 	blne	86838 <__bss_end__+0x745a0>
  30:	22011c03 	andcs	r1, r1, #768	; 0x300
  34:	Address 0x00000034 is out of bounds.


Disassembly of section .debug_aranges:

00000000 <.debug_aranges>:
   0:	00000034 	andeq	r0, r0, r4, lsr r0
   4:	00000002 	andeq	r0, r0, r2
   8:	00040000 	andeq	r0, r4, r0
   c:	00000000 	andeq	r0, r0, r0
  10:	000093e0 	andeq	r9, r0, r0, ror #7
  14:	00000892 	muleq	r0, r2, r8
  18:	00008748 	andeq	r8, r0, r8, asr #14
  1c:	0000003a 	andeq	r0, r0, sl, lsr r0
  20:	00008738 	andeq	r8, r0, r8, lsr r7
  24:	0000000e 	andeq	r0, r0, lr
  28:	00008784 	andeq	r8, r0, r4, lsl #15
  2c:	00000b7c 	andeq	r0, r0, ip, ror fp
	...

Disassembly of section .debug_info:

00000000 <.debug_info>:
       0:	00001888 	andeq	r1, r0, r8, lsl #17
       4:	00000004 	andeq	r0, r0, r4
       8:	01040000 	mrseq	r0, (UNDEF: 4)
       c:	0000017f 	andeq	r0, r0, pc, ror r1
      10:	00060301 	andeq	r0, r6, r1, lsl #6
      14:	00045c00 	andeq	r5, r4, r0, lsl #24
      18:	0000f000 	andeq	pc, r0, r0
	...
      24:	04080200 	streq	r0, [r8], #-512	; 0x200
      28:	00000277 	andeq	r0, r0, r7, ror r2
      2c:	69050403 	stmdbvs	r5, {r0, r1, sl}
      30:	0200746e 	andeq	r7, r0, #1845493760	; 0x6e000000
      34:	00d60704 	sbcseq	r0, r6, r4, lsl #14
      38:	47040000 	strmi	r0, [r4, -r0]
      3c:	02000002 	andeq	r0, r0, #2
      40:	000033d4 	ldrdeq	r3, [r0], -r4
      44:	08010200 	stmdaeq	r1, {r9}
      48:	00000584 	andeq	r0, r0, r4, lsl #11
      4c:	94070202 	strls	r0, [r7], #-514	; 0x202
      50:	02000003 	andeq	r0, r0, #3
      54:	00d10704 	sbcseq	r0, r1, r4, lsl #14
      58:	01020000 	mrseq	r0, (UNDEF: 2)
      5c:	00058606 	andeq	r8, r5, r6, lsl #12
      60:	05020200 	streq	r0, [r2, #-512]	; 0x200
      64:	00000120 	andeq	r0, r0, r0, lsr #2
      68:	31050802 	tstcc	r5, r2, lsl #16
      6c:	02000001 	andeq	r0, r0, #1
      70:	00cc0708 	sbceq	r0, ip, r8, lsl #14
      74:	6e040000 	cdpvs	0, 0, cr0, cr4, cr0, {0}
      78:	03000002 	movweq	r0, #2
      7c:	00006837 	andeq	r6, r0, r7, lsr r8
      80:	00000400 	andeq	r0, r0, r0, lsl #8
      84:	83030000 	movwhi	r0, #12288	; 0x3000
      88:	0000008c 	andeq	r0, r0, ip, lsl #1
      8c:	36050402 	strcc	r0, [r5], -r2, lsl #8
      90:	04000001 	streq	r0, [r0], #-1
      94:	00000689 	andeq	r0, r0, r9, lsl #13
      98:	00768403 	rsbseq	r8, r6, r3, lsl #8
      9c:	04020000 	streq	r0, [r2], #-0
      a0:	00042607 	andeq	r2, r4, r7, lsl #12
      a4:	04040500 	streq	r0, [r4], #-1280	; 0x500
      a8:	00000244 	andeq	r0, r0, r4, asr #4
      ac:	002cac03 	eoreq	sl, ip, r3, lsl #24
      b0:	04060000 	streq	r0, [r6], #-0
      b4:	000000b8 	strheq	r0, [r0], -r8
      b8:	8d080102 	stfhis	f0, [r8, #-8]
      bc:	04000005 	streq	r0, [r0], #-5
      c0:	000004e7 	andeq	r0, r0, r7, ror #9
      c4:	00ca3004 	sbceq	r3, sl, r4
      c8:	e3070000 	movw	r0, #28672	; 0x7000
      cc:	98000004 	stmdals	r0, {r2}
      d0:	024af505 	subeq	pc, sl, #20971520	; 0x1400000
      d4:	2a080000 	bcs	2000dc <__bss_end__+0x1ede44>
      d8:	05000002 	streq	r0, [r0, #-2]
      dc:	00002cf6 	strdeq	r2, [r0], -r6
      e0:	4f080000 	svcmi	0x00080000
      e4:	05000004 	streq	r0, [r0, #-4]
      e8:	0000b2fb 	strdeq	fp, [r0], -fp	; <UNPREDICTABLE>
      ec:	72080400 	andvc	r0, r8, #0, 8
      f0:	05000001 	streq	r0, [r0, #-1]
      f4:	0000b2fc 	strdeq	fp, [r0], -ip
      f8:	98080800 	stmdals	r8, {fp}
      fc:	05000006 	streq	r0, [r0, #-6]
     100:	0000b2fd 	strdeq	fp, [r0], -sp
     104:	ba080c00 	blt	20310c <__bss_end__+0x1f0e74>
     108:	05000007 	streq	r0, [r0, #-7]
     10c:	0000b2fe 	strdeq	fp, [r0], -lr
     110:	51081000 	mrspl	r1, (UNDEF: 8)
     114:	05000003 	streq	r0, [r0, #-3]
     118:	0000b2ff 	strdeq	fp, [r0], -pc	; <UNPREDICTABLE>
     11c:	e8091400 	stmda	r9, {sl, ip}
     120:	05000006 	streq	r0, [r0, #-6]
     124:	00b20100 	adcseq	r0, r2, r0, lsl #2
     128:	09180000 	ldmdbeq	r8, {}	; <UNPREDICTABLE>
     12c:	00000098 	muleq	r0, r8, r0
     130:	b2010105 	andlt	r0, r1, #1073741825	; 0x40000001
     134:	1c000000 	stcne	0, cr0, [r0], {-0}
     138:	0005c109 	andeq	ip, r5, r9, lsl #2
     13c:	01020500 	tsteq	r2, r0, lsl #10
     140:	000000b2 	strheq	r0, [r0], -r2
     144:	03c20920 	biceq	r0, r2, #32, 18	; 0x80000
     148:	04050000 	streq	r0, [r5], #-0
     14c:	0000b201 	andeq	fp, r0, r1, lsl #4
     150:	3a092400 	bcc	249158 <__bss_end__+0x236ec0>
     154:	05000007 	streq	r0, [r0, #-7]
     158:	00b20105 	adcseq	r0, r2, r5, lsl #2
     15c:	09280000 	stmdbeq	r8!, {}	; <UNPREDICTABLE>
     160:	000006ad 	andeq	r0, r0, sp, lsr #13
     164:	b2010605 	andlt	r0, r1, #5242880	; 0x500000
     168:	2c000000 	stccs	0, cr0, [r0], {-0}
     16c:	00054509 	andeq	r4, r5, r9, lsl #10
     170:	01080500 	tsteq	r8, r0, lsl #10
     174:	00000282 	andeq	r0, r0, r2, lsl #5
     178:	000e0930 	andeq	r0, lr, r0, lsr r9
     17c:	0a050000 	beq	140184 <__bss_end__+0x12deec>
     180:	00028801 	andeq	r8, r2, r1, lsl #16
     184:	5c093400 	cfstrspl	mvf3, [r9], {-0}
     188:	05000001 	streq	r0, [r0, #-1]
     18c:	002c010c 	eoreq	r0, ip, ip, lsl #2
     190:	09380000 	ldmdbeq	r8!, {}	; <UNPREDICTABLE>
     194:	000003f8 	strdeq	r0, [r0], -r8
     198:	2c011005 	stccs	0, cr1, [r1], {5}
     19c:	3c000000 	stccc	0, cr0, [r0], {-0}
     1a0:	00051d09 	andeq	r1, r5, r9, lsl #26
     1a4:	01120500 	tsteq	r2, r0, lsl #10
     1a8:	00000081 	andeq	r0, r0, r1, lsl #1
     1ac:	025d0940 	subseq	r0, sp, #64, 18	; 0x100000
     1b0:	16050000 	strne	r0, [r5], -r0
     1b4:	00004c01 	andeq	r4, r0, r1, lsl #24
     1b8:	d5094400 	strle	r4, [r9, #-1024]	; 0x400
     1bc:	05000005 	streq	r0, [r0, #-5]
     1c0:	005a0117 	subseq	r0, sl, r7, lsl r1
     1c4:	09460000 	stmdbeq	r6, {}^	; <UNPREDICTABLE>
     1c8:	00000030 	andeq	r0, r0, r0, lsr r0
     1cc:	8e011805 	cdphi	8, 0, cr1, cr1, cr5, {0}
     1d0:	47000002 	strmi	r0, [r0, -r2]
     1d4:	0003ea09 	andeq	lr, r3, r9, lsl #20
     1d8:	011c0500 	tsteq	ip, r0, lsl #10
     1dc:	0000029e 	muleq	r0, lr, r2
     1e0:	05210948 	streq	r0, [r1, #-2376]!	; 0x948
     1e4:	25050000 	strcs	r0, [r5, #-0]
     1e8:	00009301 	andeq	r9, r0, r1, lsl #6
     1ec:	c0095000 	andgt	r5, r9, r0
     1f0:	05000006 	streq	r0, [r0, #-6]
     1f4:	00a5012e 	adceq	r0, r5, lr, lsr #2
     1f8:	09580000 	ldmdbeq	r8, {}^	; <UNPREDICTABLE>
     1fc:	000006c7 	andeq	r0, r0, r7, asr #13
     200:	a5012f05 	strge	r2, [r1, #-3845]	; 0xf05
     204:	5c000000 	stcpl	0, cr0, [r0], {-0}
     208:	0006ce09 	andeq	ip, r6, r9, lsl #28
     20c:	01300500 	teqeq	r0, r0, lsl #10
     210:	000000a5 	andeq	r0, r0, r5, lsr #1
     214:	06d50960 	ldrbeq	r0, [r5], r0, ror #18
     218:	31050000 	mrscc	r0, (UNDEF: 5)
     21c:	0000a501 	andeq	sl, r0, r1, lsl #10
     220:	e1096400 	tst	r9, r0, lsl #8
     224:	05000002 	streq	r0, [r0, #-2]
     228:	003a0132 	eorseq	r0, sl, r2, lsr r1
     22c:	09680000 	stmdbeq	r8!, {}^	; <UNPREDICTABLE>
     230:	00000400 	andeq	r0, r0, r0, lsl #8
     234:	2c013405 	cfstrscs	mvf3, [r1], {5}
     238:	6c000000 	stcvs	0, cr0, [r0], {-0}
     23c:	00070109 	andeq	r0, r7, r9, lsl #2
     240:	01360500 	teqeq	r6, r0, lsl #10
     244:	000002a4 	andeq	r0, r0, r4, lsr #5
     248:	cd0a0070 	stcgt	0, cr0, [sl, #-448]	; 0xfffffe40
     24c:	05000004 	streq	r0, [r0, #-4]
     250:	02f6079a 	rscseq	r0, r6, #40370176	; 0x2680000
     254:	050c0000 	streq	r0, [ip, #-0]
     258:	000282a0 	andeq	r8, r2, r0, lsr #5
     25c:	06830800 	streq	r0, [r3], r0, lsl #16
     260:	a1050000 	mrsge	r0, (UNDEF: 5)
     264:	00000282 	andeq	r0, r0, r2, lsl #5
     268:	03890800 	orreq	r0, r9, #0, 16
     26c:	a2050000 	andge	r0, r5, #0
     270:	00000288 	andeq	r0, r0, r8, lsl #5
     274:	05180804 	ldreq	r0, [r8, #-2052]	; 0x804
     278:	a6050000 	strge	r0, [r5], -r0
     27c:	0000002c 	andeq	r0, r0, ip, lsr #32
     280:	04060008 	streq	r0, [r6], #-8
     284:	00000251 	andeq	r0, r0, r1, asr r2
     288:	00ca0406 	sbceq	r0, sl, r6, lsl #8
     28c:	b80b0000 	stmdalt	fp, {}	; <UNPREDICTABLE>
     290:	9e000000 	cdpls	0, 0, cr0, cr0, cr0, {0}
     294:	0c000002 	stceq	0, cr0, [r0], {2}
     298:	0000009e 	muleq	r0, lr, r0
     29c:	04060000 	streq	r0, [r6], #-0
     2a0:	0000024a 	andeq	r0, r0, sl, asr #4
     2a4:	0000b80b 	andeq	fp, r0, fp, lsl #16
     2a8:	0002b400 	andeq	fp, r2, r0, lsl #8
     2ac:	009e0c00 	addseq	r0, lr, r0, lsl #24
     2b0:	00270000 	eoreq	r0, r7, r0
     2b4:	02ba0406 	adcseq	r0, sl, #100663296	; 0x6000000
     2b8:	b80d0000 	stmdalt	sp, {}	; <UNPREDICTABLE>
     2bc:	04000000 	streq	r0, [r0], #-0
     2c0:	00000246 	andeq	r0, r0, r6, asr #4
     2c4:	00a76604 	adceq	r6, r7, r4, lsl #12
     2c8:	850e0000 	strhi	r0, [lr, #-0]
     2cc:	06000007 	streq	r0, [r0], -r7
     2d0:	02d602e6 	sbcseq	r0, r6, #1610612750	; 0x6000000e
     2d4:	04060000 	streq	r0, [r6], #-0
     2d8:	000002dc 	ldrdeq	r0, [r0], -ip
     2dc:	00002c0f 	andeq	r2, r0, pc, lsl #24
     2e0:	0002f000 	andeq	pc, r2, r0
     2e4:	02f01000 	rscseq	r1, r0, #0
     2e8:	f0100000 			; <UNDEFINED> instruction: 0xf0100000
     2ec:	00000002 	andeq	r0, r0, r2
     2f0:	02f60406 	rscseq	r0, r6, #100663296	; 0x6000000
     2f4:	02110000 	andseq	r0, r1, #0
     2f8:	05030404 	streq	r0, [r3, #-1028]	; 0x404
     2fc:	4b040000 	blmi	100304 <__bss_end__+0xee06c>
     300:	07000003 	streq	r0, [r0, -r3]
     304:	0000331a 	andeq	r3, r0, sl, lsl r3
     308:	061a0400 	ldreq	r0, [sl], -r0, lsl #8
     30c:	1e070000 	cdpne	0, 0, cr0, cr7, cr0, {0}
     310:	0000006f 	andeq	r0, r0, pc, rrx
     314:	0003b512 	andeq	fp, r3, r2, lsl r5
     318:	1c080400 	cfstrsne	mvf0, [r8], {-0}
     31c:	0000034b 	andeq	r0, r0, fp, asr #6
     320:	00036b13 	andeq	r6, r3, r3, lsl fp
     324:	ac130000 	ldcge	0, cr0, [r3], {-0}
     328:	01000004 	tsteq	r0, r4
     32c:	00028e13 	andeq	r8, r2, r3, lsl lr
     330:	31130200 	tstcc	r3, r0, lsl #4
     334:	03000002 	movweq	r0, #2
     338:	0003a713 	andeq	sl, r3, r3, lsl r7
     33c:	0a130400 	beq	4c1344 <__bss_end__+0x4af0ac>
     340:	05000007 	streq	r0, [r0, #-7]
     344:	0002e813 	andeq	lr, r2, r3, lsl r8
     348:	12000600 	andne	r0, r0, #0, 12
     34c:	0000065d 	andeq	r0, r0, sp, asr r6
     350:	942c0804 	strtls	r0, [ip], #-2052	; 0x804
     354:	13000003 	movwne	r0, #3
     358:	00000406 	andeq	r0, r0, r6, lsl #8
     35c:	02b91300 	adcseq	r1, r9, #0, 6
     360:	13010000 	movwne	r0, #4096	; 0x1000
     364:	00000592 	muleq	r0, r2, r5
     368:	00b11302 	adcseq	r1, r1, r2, lsl #6
     36c:	13030000 	movwne	r0, #12288	; 0x3000
     370:	000000f5 	strdeq	r0, [r0], -r5
     374:	05291304 	streq	r1, [r9, #-772]!	; 0x304
     378:	13050000 	movwne	r0, #20480	; 0x5000
     37c:	00000753 	andeq	r0, r0, r3, asr r7
     380:	062d1306 	strteq	r1, [sp], -r6, lsl #6
     384:	13070000 	movwne	r0, #28672	; 0x7000
     388:	00000073 	andeq	r0, r0, r3, ror r0
     38c:	00e31308 	rsceq	r1, r3, r8, lsl #6
     390:	00090000 	andeq	r0, r9, r0
     394:	ba080814 	blt	2023ec <__bss_end__+0x1f0154>
     398:	000003b3 			; <UNDEFINED> instruction: 0x000003b3
     39c:	0004bf15 	andeq	fp, r4, r5, lsl pc
     3a0:	09bb0800 	ldmibeq	fp!, {fp}
     3a4:	15000003 	strne	r0, [r0, #-3]
     3a8:	000005f7 	strdeq	r0, [r0], -r7
     3ac:	0309bc08 	movweq	fp, #39944	; 0x9c08
     3b0:	14000000 	strne	r0, [r0], #-0
     3b4:	d2e10804 	rscle	r0, r1, #4, 16	; 0x40000
     3b8:	15000003 	strne	r0, [r0, #-3]
     3bc:	00000164 	andeq	r0, r0, r4, ror #2
     3c0:	02fee208 	rscseq	lr, lr, #8, 4	; 0x80000000
     3c4:	1f150000 	svcne	0x00150000
     3c8:	08000000 	stmdaeq	r0, {}	; <UNPREDICTABLE>
     3cc:	0002fee3 	andeq	pc, r2, r3, ror #29
     3d0:	08140000 	ldmdaeq	r4, {}	; <UNPREDICTABLE>
     3d4:	03f1e708 	mvnseq	lr, #8, 14	; 0x200000
     3d8:	7c150000 	ldcvc	0, cr0, [r5], {-0}
     3dc:	08000005 	stmdaeq	r0, {r0, r2}
     3e0:	000309e8 	andeq	r0, r3, r8, ror #19
     3e4:	02a31500 	adceq	r1, r3, #0, 10
     3e8:	e9080000 	stmdb	r8, {}	; <UNPREDICTABLE>
     3ec:	00000309 	andeq	r0, r0, r9, lsl #6
     3f0:	08081400 	stmdaeq	r8, {sl, ip}
     3f4:	000410eb 	andeq	r1, r4, fp, ror #1
     3f8:	03141500 	tsteq	r4, #0, 10
     3fc:	ec080000 	stc	0, cr0, [r8], {-0}
     400:	00000309 	andeq	r0, r0, r9, lsl #6
     404:	0002ab15 	andeq	sl, r2, r5, lsl fp
     408:	09ed0800 	stmibeq	sp!, {fp}^
     40c:	00000003 	andeq	r0, r0, r3
     410:	0005b107 	andeq	fp, r5, r7, lsl #2
     414:	a9084800 	stmdbge	r8, {fp, lr}
     418:	0000059a 	muleq	r0, sl, r5
     41c:	00033b08 	andeq	r3, r3, r8, lsl #22
     420:	feae0800 	cdp2	8, 10, cr0, cr14, cr0, {0}
     424:	00000002 	andeq	r0, r0, r2
     428:	00038f08 	andeq	r8, r3, r8, lsl #30
     42c:	feb30800 	cdp2	8, 11, cr0, cr3, cr0, {0}
     430:	04000002 	streq	r0, [r0], #-2
     434:	00062608 	andeq	r2, r6, r8, lsl #12
     438:	09b80800 	ldmibeq	r8!, {fp}
     43c:	08000003 	stmdaeq	r0, {r0, r1}
     440:	00039416 	andeq	r9, r3, r6, lsl r4
     444:	34081000 	strcc	r1, [r8], #-0
     448:	08000003 	stmdaeq	r0, {r0, r1}
     44c:	000309bf 			; <UNDEFINED> instruction: 0x000309bf
     450:	a5081800 	strge	r1, [r8, #-2048]	; 0x800
     454:	08000000 	stmdaeq	r0, {}	; <UNPREDICTABLE>
     458:	000309c0 	andeq	r0, r3, r0, asr #19
     45c:	23172000 	tstcs	r7, #0
     460:	08000003 	stmdaeq	r0, {r0, r1}
     464:	000309c2 	andeq	r0, r3, r2, asr #19
     468:	3f010800 	svccc	0x00010800
     46c:	032c1728 	teqeq	ip, #40, 14	; 0xa00000
     470:	c3080000 	movwgt	r0, #32768	; 0x8000
     474:	00000309 	andeq	r0, r0, r9, lsl #6
     478:	283e0108 	ldmdacs	lr!, {r3, r8}
     47c:	00067c17 	andeq	r7, r6, r7, lsl ip
     480:	09c40800 	stmibeq	r4, {fp}^
     484:	08000003 	stmdaeq	r0, {r0, r1}
     488:	17283d01 	strne	r3, [r8, -r1, lsl #26]!
     48c:	0000003a 	andeq	r0, r0, sl, lsr r0
     490:	0309c508 	movweq	ip, #38152	; 0x9508
     494:	01080000 	mrseq	r0, (UNDEF: 8)
     498:	0617283c 			; <UNDEFINED> instruction: 0x0617283c
     49c:	08000002 	stmdaeq	r0, {r1}
     4a0:	000309c6 	andeq	r0, r3, r6, asr #19
     4a4:	3b010800 	blcc	424ac <__bss_end__+0x30214>
     4a8:	042f1728 	strteq	r1, [pc], #-1832	; 4b0 <shift+0x4b0>
     4ac:	c7080000 	strgt	r0, [r8, -r0]
     4b0:	00000309 	andeq	r0, r0, r9, lsl #6
     4b4:	283a0108 	ldmdacs	sl!, {r3, r8}
     4b8:	00037e17 	andeq	r7, r3, r7, lsl lr
     4bc:	09c80800 	stmibeq	r8, {fp}^
     4c0:	08000003 	stmdaeq	r0, {r0, r1}
     4c4:	17283901 	strne	r3, [r8, -r1, lsl #18]!
     4c8:	00000668 	andeq	r0, r0, r8, ror #12
     4cc:	0309c908 	movweq	ip, #39176	; 0x9908
     4d0:	01080000 	mrseq	r0, (UNDEF: 8)
     4d4:	69172838 	ldmdbvs	r7, {r3, r4, r5, fp, sp}
     4d8:	08000002 	stmdaeq	r0, {r1}
     4dc:	000309ca 	andeq	r0, r3, sl, asr #19
     4e0:	37010800 	strcc	r0, [r1, -r0, lsl #16]
     4e4:	00641728 	rsbeq	r1, r4, r8, lsr #14
     4e8:	cb080000 	blgt	2004f0 <__bss_end__+0x1ee258>
     4ec:	00000309 	andeq	r0, r0, r9, lsl #6
     4f0:	28360108 	ldmdacs	r6!, {r3, r8}
     4f4:	0005fe17 	andeq	pc, r5, r7, lsl lr	; <UNPREDICTABLE>
     4f8:	09cc0800 	stmibeq	ip, {fp}^
     4fc:	08000003 	stmdaeq	r0, {r0, r1}
     500:	17283501 	strne	r3, [r8, -r1, lsl #10]!
     504:	000007c9 	andeq	r0, r0, r9, asr #15
     508:	0309cd08 	movweq	ip, #40200	; 0x9d08
     50c:	01080000 	mrseq	r0, (UNDEF: 8)
     510:	eb172834 	bl	5ca5e8 <__bss_end__+0x5b8350>
     514:	08000007 	stmdaeq	r0, {r0, r1, r2}
     518:	000309ce 	andeq	r0, r3, lr, asr #19
     51c:	33010800 	movwcc	r0, #6144	; 0x1800
     520:	06931728 	ldreq	r1, [r3], r8, lsr #14
     524:	cf080000 	svcgt	0x00080000
     528:	00000309 	andeq	r0, r0, r9, lsl #6
     52c:	28320108 	ldmdacs	r2!, {r3, r8}
     530:	00002617 	andeq	r2, r0, r7, lsl r6
     534:	09d00800 	ldmibeq	r0, {fp}^
     538:	08000003 	stmdaeq	r0, {r0, r1}
     53c:	17283101 	strne	r3, [r8, -r1, lsl #2]!
     540:	000006f6 	strdeq	r0, [r0], -r6
     544:	0309db08 	movweq	sp, #39688	; 0x9b08
     548:	02080000 	andeq	r0, r8, #0
     54c:	1517282f 	ldrne	r2, [r7, #-2095]	; 0x82f
     550:	08000000 	stmdaeq	r0, {}	; <UNPREDICTABLE>
     554:	000309dc 	ldrdeq	r0, [r3], -ip
     558:	2e010800 	cdpcs	8, 0, cr0, cr1, cr0, {0}
     55c:	055c1728 	ldrbeq	r1, [ip, #-1832]	; 0x728
     560:	dd080000 	stcle	0, cr0, [r8, #-0]
     564:	00000309 	andeq	r0, r0, r9, lsl #6
     568:	282d0108 	stmdacs	sp!, {r3, r8}
     56c:	00030717 	andeq	r0, r3, r7, lsl r7
     570:	09df0800 	ldmibeq	pc, {fp}^	; <UNPREDICTABLE>
     574:	08000003 	stmdaeq	r0, {r0, r1}
     578:	1628002d 	strtne	r0, [r8], -sp, lsr #32
     57c:	000003b3 			; <UNDEFINED> instruction: 0x000003b3
     580:	03f00830 	mvnseq	r0, #48, 16	; 0x300000
     584:	e6080000 	str	r0, [r8], -r0
     588:	000002fe 	strdeq	r0, [r0], -lr
     58c:	03d21634 	bicseq	r1, r2, #52, 12	; 0x3400000
     590:	16380000 	ldrtne	r0, [r8], -r0
     594:	000003f1 	strdeq	r0, [r0], -r1
     598:	17040040 	strne	r0, [r4, -r0, asr #32]
     59c:	01000001 	tsteq	r0, r1
     5a0:	00005a2f 	andeq	r5, r0, pc, lsr #20
     5a4:	079a0400 	ldreq	r0, [sl, r0, lsl #8]
     5a8:	30010000 	andcc	r0, r1, r0
     5ac:	000005b0 			; <UNDEFINED> instruction: 0x000005b0
     5b0:	05b60406 	ldreq	r0, [r6, #1030]!	; 0x406
     5b4:	5a180000 	bpl	6005bc <__bss_end__+0x5ee324>
     5b8:	04000000 	streq	r0, [r0], #-0
     5bc:	000003d7 	ldrdeq	r0, [r0], -r7
     5c0:	00333101 	eorseq	r3, r3, r1, lsl #2
     5c4:	13190000 	tstne	r9, #0
     5c8:	01000002 	tsteq	r0, r2
     5cc:	0005bb61 	andeq	fp, r5, r1, ror #22
     5d0:	05ff0100 	ldrbeq	r0, [pc, #256]!	; 6d8 <shift+0x6d8>
     5d4:	731a0000 	tstvc	sl, #0
     5d8:	01006769 	tsteq	r0, r9, ror #14
     5dc:	0005ff61 	andeq	pc, r5, r1, ror #30
     5e0:	00731a00 	rsbseq	r1, r3, r0, lsl #20
     5e4:	05bb6101 	ldreq	r6, [fp, #257]!	; 0x101
     5e8:	691b0000 	ldmdbvs	fp, {}	; <UNPREDICTABLE>
     5ec:	bb620100 	bllt	18809f4 <__bss_end__+0x186e75c>
     5f0:	1b000005 	blne	60c <shift+0x60c>
     5f4:	0078616d 	rsbseq	r6, r8, sp, ror #2
     5f8:	05bb6201 	ldreq	r6, [fp, #513]!	; 0x201
     5fc:	06000000 	streq	r0, [r0], -r0
     600:	00002504 	andeq	r2, r0, r4, lsl #10
     604:	012a1c00 	teqeq	sl, r0, lsl #24
     608:	07010000 	streq	r0, [r1, -r0]
     60c:	00006f01 	andeq	r6, r0, r1, lsl #30
     610:	06230100 	strteq	r0, [r3], -r0, lsl #2
     614:	fd1d0000 	ldc2	0, cr0, [sp, #-0]
     618:	01000004 	tsteq	r0, r4
     61c:	06230107 	strteq	r0, [r3], -r7, lsl #2
     620:	06000000 	streq	r0, [r0], -r0
     624:	00006f04 	andeq	r6, r0, r4, lsl #30
     628:	05091e00 	streq	r1, [r9, #-3584]	; 0xe00
     62c:	4a010000 	bmi	40634 <__bss_end__+0x2e39c>
     630:	00065c01 	andeq	r5, r6, r1, lsl #24
     634:	00761a00 	rsbseq	r1, r6, r0, lsl #20
     638:	05ff4a01 	ldrbeq	r4, [pc, #2561]!	; 1041 <shift+0x1041>
     63c:	6e1a0000 	cdpvs	0, 1, cr0, cr10, cr0, {0}
     640:	bb4b0100 	bllt	12c0a48 <__bss_end__+0x12ae7b0>
     644:	1f000005 	svcne	0x00000005
     648:	00000724 	andeq	r0, r0, r4, lsr #14
     64c:	00254c01 	eoreq	r4, r5, r1, lsl #24
     650:	691b0000 	ldmdbvs	fp, {}	; <UNPREDICTABLE>
     654:	bb4d0100 	bllt	1340a5c <__bss_end__+0x132e7c4>
     658:	00000005 	andeq	r0, r0, r5
     65c:	0006dc1e 	andeq	sp, r6, lr, lsl ip
     660:	01550100 	cmpeq	r5, r0, lsl #2
     664:	000006b0 			; <UNDEFINED> instruction: 0x000006b0
     668:	6769731a 			; <UNDEFINED> instruction: 0x6769731a
     66c:	ff550100 			; <UNDEFINED> instruction: 0xff550100
     670:	1a000005 	bne	68c <shift+0x68c>
     674:	55010073 	strpl	r0, [r1, #-115]	; 0x73
     678:	000005bb 			; <UNDEFINED> instruction: 0x000005bb
     67c:	0007241f 	andeq	r2, r7, pc, lsl r4
     680:	25560100 	ldrbcs	r0, [r6, #-256]	; 0x100
     684:	1f000000 	svcne	0x00000000
     688:	000005ee 	andeq	r0, r0, lr, ror #11
     68c:	05ff5701 	ldrbeq	r5, [pc, #1793]!	; d95 <shift+0xd95>
     690:	741a0000 	ldrvc	r0, [sl], #-0
     694:	bb570100 	bllt	15c0a9c <__bss_end__+0x15ae804>
     698:	1a000005 	bne	6b4 <shift+0x6b4>
     69c:	00736f70 	rsbseq	r6, r3, r0, ror pc
     6a0:	05bb5801 	ldreq	r5, [fp, #2049]!	; 0x801
     6a4:	691b0000 	ldmdbvs	fp, {}	; <UNPREDICTABLE>
     6a8:	bb5a0100 	bllt	1680ab0 <__bss_end__+0x166e818>
     6ac:	00000005 	andeq	r0, r0, r5
     6b0:	0001531e 	andeq	r5, r1, lr, lsl r3
     6b4:	016c0100 	cmneq	ip, r0, lsl #2
     6b8:	00000702 	andeq	r0, r0, r2, lsl #14
     6bc:	6769731a 			; <UNDEFINED> instruction: 0x6769731a
     6c0:	ff6c0100 			; <UNDEFINED> instruction: 0xff6c0100
     6c4:	1a000005 	bne	6e0 <shift+0x6e0>
     6c8:	6c010073 	stcvs	0, cr0, [r1], {115}	; 0x73
     6cc:	000005bb 			; <UNDEFINED> instruction: 0x000005bb
     6d0:	0006531f 	andeq	r5, r6, pc, lsl r3
     6d4:	336d0100 	cmncc	sp, #0, 2
     6d8:	1a000000 	bne	6e0 <shift+0x6e0>
     6dc:	6e010076 	mcrvs	0, 0, r0, cr1, cr6, {3}
     6e0:	000005a5 	andeq	r0, r0, r5, lsr #11
     6e4:	01006d1b 	tsteq	r0, fp, lsl sp
     6e8:	0005bb70 	andeq	fp, r5, r0, ror fp
     6ec:	00691b00 	rsbeq	r1, r9, r0, lsl #22
     6f0:	00337101 	eorseq	r7, r3, r1, lsl #2
     6f4:	08200000 	stmdaeq	r0!, {}	; <UNPREDICTABLE>
     6f8:	01000000 	mrseq	r0, (UNDEF: 0)
     6fc:	00002572 	andeq	r2, r0, r2, ror r5
     700:	ef1e0000 	svc	0x001e0000
     704:	01000004 	tsteq	r0, r4
     708:	078b018e 	streq	r0, [fp, lr, lsl #3]
     70c:	731a0000 	tstvc	sl, #0
     710:	01006769 	tsteq	r0, r9, ror #14
     714:	0005a58e 	andeq	sl, r5, lr, lsl #11
     718:	05721f00 	ldrbeq	r1, [r2, #-3840]!	; 0xf00
     71c:	8f010000 	svchi	0x00010000
     720:	000005bb 			; <UNDEFINED> instruction: 0x000005bb
     724:	0002861f 	andeq	r8, r2, pc, lsl r6
     728:	bb900100 	bllt	fe400b30 <__bss_end__+0xfe3ee898>
     72c:	1f000005 	svcne	0x00000005
     730:	000005ee 	andeq	r0, r0, lr, ror #11
     734:	05a59101 	streq	r9, [r5, #257]!	; 0x101
     738:	7e1f0000 	cdpvc	0, 1, cr0, cr15, cr0, {0}
     73c:	01000002 	tsteq	r0, r2
     740:	0005bb92 	muleq	r5, r2, fp
     744:	00631a00 	rsbeq	r1, r3, r0, lsl #20
     748:	078b9301 	streq	r9, [fp, r1, lsl #6]
     74c:	691b0000 	ldmdbvs	fp, {}	; <UNPREDICTABLE>
     750:	bb950100 	bllt	fe540b58 <__bss_end__+0xfe52e8c0>
     754:	1b000005 	blne	770 <shift+0x770>
     758:	9501006a 	strls	r0, [r1, #-106]	; 0x6a
     75c:	000005bb 			; <UNDEFINED> instruction: 0x000005bb
     760:	01006b1b 	tsteq	r0, fp, lsl fp
     764:	0005bb95 	muleq	r5, r5, fp
     768:	63611b00 	cmnvs	r1, #0, 22
     76c:	96010063 	strls	r0, [r1], -r3, rrx
     770:	0000002c 	andeq	r0, r0, ip, lsr #32
     774:	78616d1b 	stmdavc	r1!, {r0, r1, r3, r4, r8, sl, fp, sp, lr}^
     778:	2c970100 	ldfcss	f0, [r7], {0}
     77c:	20000000 	andcs	r0, r0, r0
     780:	0000074a 	andeq	r0, r0, sl, asr #14
     784:	05bb9801 	ldreq	r9, [fp, #2049]!	; 0x801
     788:	06000000 	streq	r0, [r0], -r0
     78c:	0005bb04 	andeq	fp, r5, r4, lsl #22
     790:	043e2100 	ldrteq	r2, [lr], #-256	; 0x100
     794:	01010000 	mrseq	r0, (UNDEF: 1)
     798:	00002c01 	andeq	r2, r0, r1, lsl #24
     79c:	0093e000 	addseq	lr, r3, r0
     7a0:	00002400 	andeq	r2, r0, r0, lsl #8
     7a4:	e29c0100 	adds	r0, ip, #0, 2
     7a8:	22000007 	andcs	r0, r0, #7
     7ac:	01010061 	tsteq	r1, r1, rrx
     7b0:	0002f001 	andeq	pc, r2, r1
     7b4:	00000000 	andeq	r0, r0, r0
     7b8:	00622300 	rsbeq	r2, r2, r0, lsl #6
     7bc:	f0010101 			; <UNDEFINED> instruction: 0xf0010101
     7c0:	01000002 	tsteq	r0, r2
     7c4:	61642451 	cmnvs	r4, r1, asr r4
     7c8:	01020100 	mrseq	r0, (UNDEF: 18)
     7cc:	000007e2 	andeq	r0, r0, r2, ror #15
     7d0:	00000000 	andeq	r0, r0, r0
     7d4:	00626425 	rsbeq	r6, r2, r5, lsr #8
     7d8:	e2010301 	and	r0, r1, #67108864	; 0x4000000
     7dc:	01000007 	tsteq	r0, r7
     7e0:	04060051 	streq	r0, [r6], #-81	; 0x51
     7e4:	000007e8 	andeq	r0, r0, r8, ror #15
     7e8:	00006f0d 	andeq	r6, r0, sp, lsl #30
     7ec:	006e2600 	rsbeq	r2, lr, r0, lsl #12
     7f0:	1a010000 	bne	407f8 <__bss_end__+0x2e560>
     7f4:	00008748 	andeq	r8, r0, r8, asr #14
     7f8:	0000003a 	andeq	r0, r0, sl, lsr r0
     7fc:	08459c01 	stmdaeq	r5, {r0, sl, fp, ip, pc}^
     800:	bc270000 	stclt	0, cr0, [r7], #-0
     804:	01000005 	tsteq	r0, r5
     808:	0004101b 	andeq	r1, r4, fp, lsl r0
     80c:	40030500 	andmi	r0, r3, r0, lsl #10
     810:	28000122 	stmdacs	r0, {r1, r5, r8}
     814:	00008774 	andeq	r8, r0, r4, ror r7
     818:	000016bd 			; <UNDEFINED> instruction: 0x000016bd
     81c:	02530129 	subseq	r0, r3, #1073741834	; 0x4000000a
     820:	0129ff09 	msreq	(UNDEF: 57), r9
     824:	00740252 	rsbseq	r0, r4, r2, asr r2
     828:	02510129 	subseq	r0, r1, #1073741834	; 0x4000000a
     82c:	01290076 	teqeq	r9, r6, ror r0
     830:	6c0a0350 	stcvs	3, cr0, [sl], {80}	; 0x50
     834:	7d022901 	stcvc	9, cr2, [r2, #-4]
     838:	00740204 	rsbseq	r0, r4, r4, lsl #4
     83c:	007d0229 	rsbseq	r0, sp, r9, lsr #4
     840:	00ff0902 	rscseq	r0, pc, r2, lsl #18
     844:	07a62600 	streq	r2, [r6, r0, lsl #12]!
     848:	21010000 	mrscs	r0, (UNDEF: 1)
     84c:	00008738 	andeq	r8, r0, r8, lsr r7
     850:	0000000e 	andeq	r0, r0, lr
     854:	08649c01 	stmdaeq	r4!, {r0, sl, fp, ip, pc}^
     858:	462a0000 	strtmi	r0, [sl], -r0
     85c:	d4000087 	strle	r0, [r0], #-135	; 0x87
     860:	00000016 	andeq	r0, r0, r6, lsl r0
     864:	0007dd2b 	andeq	sp, r7, fp, lsr #26
     868:	04380100 	ldrteq	r0, [r8], #-256	; 0x100
     86c:	2c000094 	stccs	0, cr0, [r0], {148}	; 0x94
     870:	01000000 	mrseq	r0, (UNDEF: 0)
     874:	0008e79c 	muleq	r8, ip, r7
     878:	00732c00 	rsbseq	r2, r3, r0, lsl #24
     87c:	00333901 	eorseq	r3, r3, r1, lsl #18
     880:	91020000 	mrsls	r0, (UNDEF: 2)
     884:	00662d74 	rsbeq	r2, r6, r4, ror sp
     888:	002c3a01 	eoreq	r3, ip, r1, lsl #20
     88c:	00210000 	eoreq	r0, r1, r0
     890:	162e0000 	strtne	r0, [lr], -r0
     894:	ea000094 	b	aec <shift+0xaec>
     898:	ae000016 	mcrge	0, 0, r0, cr0, cr6, {0}
     89c:	29000008 	stmdbcs	r0, {r3}
     8a0:	30015101 	andcc	r5, r1, r1, lsl #2
     8a4:	05500129 	ldrbeq	r0, [r0, #-297]	; 0x129
     8a8:	009f5403 	addseq	r5, pc, r3, lsl #8
     8ac:	202e0000 	eorcs	r0, lr, r0
     8b0:	05000094 	streq	r0, [r0, #-148]	; 0x94
     8b4:	cd000017 	stcgt	0, cr0, [r0, #-92]	; 0xffffffa4
     8b8:	29000008 	stmdbcs	r0, {r3}
     8bc:	34015201 	strcc	r5, [r1], #-513	; 0x201
     8c0:	02510129 	subseq	r0, r1, #1073741834	; 0x4000000a
     8c4:	01297491 			; <UNDEFINED> instruction: 0x01297491
     8c8:	00740250 	rsbseq	r0, r4, r0, asr r2
     8cc:	94262f00 	strtls	r2, [r6], #-3840	; 0xf00
     8d0:	17250000 	strne	r0, [r5, -r0]!
     8d4:	2c280000 	stccs	0, cr0, [r8], #-0
     8d8:	d4000094 	strle	r0, [r0], #-148	; 0x94
     8dc:	29000016 	stmdbcs	r0, {r1, r2, r4}
     8e0:	74025001 	strvc	r5, [r2], #-1
     8e4:	30000000 	andcc	r0, r0, r0
     8e8:	00000793 	muleq	r0, r3, r7
     8ec:	94304101 	ldrtls	r4, [r0], #-257	; 0x101
     8f0:	00f80000 	rscseq	r0, r8, r0
     8f4:	9c010000 	stcls	0, cr0, [r1], {-0}
     8f8:	00000a21 	andeq	r0, r0, r1, lsr #20
     8fc:	01007631 	tsteq	r0, r1, lsr r6
     900:	0005ff41 	andeq	pc, r5, r1, asr #30
     904:	00003f00 	andeq	r3, r0, r0, lsl #30
     908:	006e3100 	rsbeq	r3, lr, r0, lsl #2
     90c:	05bb4101 	ldreq	r4, [fp, #257]!	; 0x101
     910:	00760000 	rsbseq	r0, r6, r0
     914:	692d0000 	pushvs	{}	; <UNPREDICTABLE>
     918:	bb420100 	bllt	1080d20 <__bss_end__+0x106ea88>
     91c:	aa000005 	bge	938 <shift+0x938>
     920:	32000000 	andcc	r0, r0, #0
     924:	0000013f 	andeq	r0, r0, pc, lsr r1
     928:	00000a31 	andeq	r0, r0, r1, lsr sl
     92c:	9f4c0305 	svcls	0x004c0305
     930:	762e0000 	strtvc	r0, [lr], -r0
     934:	37000094 			; <UNDEFINED> instruction: 0x37000094
     938:	59000017 	stmdbpl	r0, {r0, r1, r2, r4}
     93c:	29000009 	stmdbcs	r0, {r0, r3}
     940:	93409008 	movtls	r9, #8
     944:	93419004 	movtls	r9, #4100	; 0x1004
     948:	00740e04 	rsbseq	r0, r4, r4, lsl #28
     94c:	25f72cf7 	ldrbcs	r2, [r7, #3319]!	; 0xcf7
     950:	1e2552f5 	mcrne	2, 1, r5, cr5, cr5, {7}
     954:	1b2550f5 	blne	954d30 <__bss_end__+0x942a98>
     958:	94902e00 	ldrls	r2, [r0], #3584	; 0xe00
     95c:	17370000 	ldrne	r0, [r7, -r0]!
     960:	09800000 	stmibeq	r0, {}	; <UNPREDICTABLE>
     964:	08290000 	stmdaeq	r9!, {}	; <UNPREDICTABLE>
     968:	04934090 	ldreq	r4, [r3], #144	; 0x90
     96c:	04934190 	ldreq	r4, [r3], #400	; 0x190
     970:	f77c760e 			; <UNDEFINED> instruction: 0xf77c760e
     974:	f525f72c 			; <UNDEFINED> instruction: 0xf525f72c
     978:	f51e2552 			; <UNDEFINED> instruction: 0xf51e2552
     97c:	001b2550 	andseq	r2, fp, r0, asr r5
     980:	0094aa2e 	addseq	sl, r4, lr, lsr #20
     984:	00173700 	andseq	r3, r7, r0, lsl #14
     988:	0009a700 	andeq	sl, r9, r0, lsl #14
     98c:	90082900 	andls	r2, r8, r0, lsl #18
     990:	90049340 	andls	r9, r4, r0, asr #6
     994:	0e049341 	cdpeq	3, 0, cr9, cr4, cr1, {2}
     998:	2cf70274 	lfmcs	f0, 2, [r7], #464	; 0x1d0
     99c:	52f525f7 	rscspl	r2, r5, #1035993088	; 0x3dc00000
     9a0:	50f51e25 	rscspl	r1, r5, r5, lsr #28
     9a4:	2e001b25 	vmlacs.f64	d1, d0, d21
     9a8:	000094c6 	andeq	r9, r0, r6, asr #9
     9ac:	00001737 	andeq	r1, r0, r7, lsr r7
     9b0:	000009ce 	andeq	r0, r0, lr, asr #19
     9b4:	40900829 	addsmi	r0, r0, r9, lsr #16
     9b8:	41900493 			; <UNDEFINED> instruction: 0x41900493
     9bc:	740e0493 	strvc	r0, [lr], #-1171	; 0x493
     9c0:	f72cf77f 			; <UNDEFINED> instruction: 0xf72cf77f
     9c4:	2552f525 	ldrbcs	pc, [r2, #-1317]	; 0x525	; <UNPREDICTABLE>
     9c8:	2550f51e 	ldrbcs	pc, [r0, #-1310]	; 0x51e	; <UNPREDICTABLE>
     9cc:	ec2e001b 	stc	0, cr0, [lr], #-108	; 0xffffff94
     9d0:	37000094 			; <UNDEFINED> instruction: 0x37000094
     9d4:	f5000017 			; <UNDEFINED> instruction: 0xf5000017
     9d8:	29000009 	stmdbcs	r0, {r0, r3}
     9dc:	93409008 	movtls	r9, #8
     9e0:	93419004 	movtls	r9, #4100	; 0x1004
     9e4:	7f740e04 	svcvc	0x00740e04
     9e8:	25f733f7 	ldrbcs	r3, [r7, #1015]!	; 0x3f7
     9ec:	1e2552f5 	mcrne	2, 1, r5, cr5, cr5, {7}
     9f0:	1b2550f5 	blne	954dcc <__bss_end__+0x942b34>
     9f4:	951e2800 	ldrls	r2, [lr, #-2048]	; 0x800
     9f8:	174c0000 	strbne	r0, [ip, -r0]
     9fc:	01290000 	teqeq	r9, r0
     a00:	4c030553 	cfstr32mi	mvfx0, [r3], {83}	; 0x53
     a04:	2900009f 	stmdbcs	r0, {r0, r1, r2, r3, r4, r7}
     a08:	08025201 	stmdaeq	r2, {r0, r9, ip, lr}
     a0c:	51012943 	tstpl	r1, r3, asr #18
     a10:	9f680305 	svcls	0x00680305
     a14:	01290000 	teqeq	r9, r0
     a18:	60030550 	andvs	r0, r3, r0, asr r5
     a1c:	0000009f 	muleq	r0, pc, r0	; <UNPREDICTABLE>
     a20:	00b80b00 	adcseq	r0, r8, r0, lsl #22
     a24:	0a310000 	beq	c40a2c <__bss_end__+0xc2e794>
     a28:	9e0c0000 	cdpls	0, 0, cr0, cr12, cr0, {0}
     a2c:	06000000 	streq	r0, [r0], -r0
     a30:	0a210d00 	beq	843e38 <__bss_end__+0x831ba0>
     a34:	29330000 	ldmdbcs	r3!, {}	; <UNPREDICTABLE>
     a38:	28000006 	stmdacs	r0, {r1, r2}
     a3c:	00000095 	muleq	r0, r5, r0
     a40:	01000001 	tsteq	r0, r1
     a44:	000a9b9c 	muleq	sl, ip, fp
     a48:	06353400 	ldrteq	r3, [r5], -r0, lsl #8
     a4c:	01270000 	teqeq	r7, r0
     a50:	3e340000 	cdpcc	0, 3, cr0, cr4, cr0, {0}
     a54:	5e000006 	cdppl	0, 0, cr0, cr0, cr6, {0}
     a58:	34000001 	strcc	r0, [r0], #-1
     a5c:	00000647 	andeq	r0, r0, r7, asr #12
     a60:	00000187 	andeq	r0, r0, r7, lsl #3
     a64:	00065235 	andeq	r5, r6, r5, lsr r2
     a68:	0001d500 	andeq	sp, r1, r0, lsl #10
     a6c:	95562f00 	ldrbls	r2, [r6, #-3840]	; 0xf00
     a70:	176c0000 	strbne	r0, [ip, -r0]!
     a74:	7e2f0000 	cdpvc	0, 2, cr0, cr15, cr0, {0}
     a78:	6c000095 	stcvs	0, cr0, [r0], {149}	; 0x95
     a7c:	2f000017 	svccs	0x00000017
     a80:	0000959e 	muleq	r0, lr, r5
     a84:	0000176c 	andeq	r1, r0, ip, ror #14
     a88:	0095be2f 	addseq	fp, r5, pc, lsr #28
     a8c:	00176c00 	andseq	r6, r7, r0, lsl #24
     a90:	95f22f00 	ldrbls	r2, [r2, #3840]!	; 0xf00
     a94:	176c0000 	strbne	r0, [ip, -r0]!
     a98:	36000000 	strcc	r0, [r0], -r0
     a9c:	0000065c 	andeq	r0, r0, ip, asr r6
     aa0:	00009628 	andeq	r9, r0, r8, lsr #12
     aa4:	000001f0 	strdeq	r0, [r0], -r0	; <UNPREDICTABLE>
     aa8:	0b519c01 	bleq	1467ab4 <__bss_end__+0x145581c>
     aac:	68340000 	ldmdavs	r4!, {}	; <UNPREDICTABLE>
     ab0:	3d000006 	stccc	0, cr0, [r0, #-24]	; 0xffffffe8
     ab4:	34000002 	strcc	r0, [r0], #-2
     ab8:	00000673 	andeq	r0, r0, r3, ror r6
     abc:	00000271 	andeq	r0, r0, r1, ror r2
     ac0:	00067c34 	andeq	r7, r6, r4, lsr ip
     ac4:	0002a500 	andeq	sl, r2, r0, lsl #10
     ac8:	06873400 	streq	r3, [r7], r0, lsl #8
     acc:	03030000 	movweq	r0, #12288	; 0x3000
     ad0:	92340000 	eorsls	r0, r4, #0
     ad4:	3b000006 	blcc	af4 <shift+0xaf4>
     ad8:	34000003 	strcc	r0, [r0], #-3
     adc:	0000069b 	muleq	r0, fp, r6
     ae0:	0000036f 	andeq	r0, r0, pc, ror #6
     ae4:	0006a635 	andeq	sl, r6, r5, lsr r6
     ae8:	00038f00 	andeq	r8, r3, r0, lsl #30
     aec:	06293700 	strteq	r3, [r9], -r0, lsl #14
     af0:	962c0000 	strtls	r0, [ip], -r0
     af4:	00000000 	andeq	r0, r0, r0
     af8:	5b010000 	blpl	40b00 <__bss_end__+0x2e868>
     afc:	00064738 	andeq	r4, r6, r8, lsr r7
     b00:	063e3400 	ldrteq	r3, [lr], -r0, lsl #8
     b04:	040a0000 	streq	r0, [sl], #-0
     b08:	35340000 	ldrcc	r0, [r4, #-0]!
     b0c:	3e000006 	cdpcc	0, 0, cr0, cr0, cr6, {0}
     b10:	39000004 	stmdbcc	r0, {r2}
     b14:	00000000 	andeq	r0, r0, r0
     b18:	00065235 	andeq	r5, r6, r5, lsr r2
     b1c:	00047200 	andeq	r7, r4, r0, lsl #4
     b20:	96622f00 	strbtls	r2, [r2], -r0, lsl #30
     b24:	176c0000 	strbne	r0, [ip, -r0]!
     b28:	8e2f0000 	cdphi	0, 2, cr0, cr15, cr0, {0}
     b2c:	6c000096 	stcvs	0, cr0, [r0], {150}	; 0x96
     b30:	2f000017 	svccs	0x00000017
     b34:	000096ae 	andeq	r9, r0, lr, lsr #13
     b38:	0000176c 	andeq	r1, r0, ip, ror #14
     b3c:	0096ce2f 	addseq	ip, r6, pc, lsr #28
     b40:	00176c00 	andseq	r6, r7, r0, lsl #24
     b44:	97042f00 	strls	r2, [r4, -r0, lsl #30]
     b48:	176c0000 	strbne	r0, [ip, -r0]!
     b4c:	00000000 	andeq	r0, r0, r0
     b50:	05c63300 	strbeq	r3, [r6, #768]	; 0x300
     b54:	98180000 	ldmdals	r8, {}	; <UNPREDICTABLE>
     b58:	00f20000 	rscseq	r0, r2, r0
     b5c:	9c010000 	stcls	0, cr0, [r1], {-0}
     b60:	00000b87 	andeq	r0, r0, r7, lsl #23
     b64:	0005d634 	andeq	sp, r5, r4, lsr r6
     b68:	0004da00 	andeq	sp, r4, r0, lsl #20
     b6c:	05e13a00 	strbeq	r3, [r1, #2560]!	; 0xa00
     b70:	51010000 	mrspl	r0, (UNDEF: 1)
     b74:	0005ea35 	andeq	lr, r5, r5, lsr sl
     b78:	00051400 	andeq	r1, r5, r0, lsl #8
     b7c:	05f33500 	ldrbeq	r3, [r3, #1280]!	; 0x500
     b80:	054a0000 	strbeq	r0, [sl, #-0]
     b84:	33000000 	movwcc	r0, #0
     b88:	000006b0 			; <UNDEFINED> instruction: 0x000006b0
     b8c:	0000990c 	andeq	r9, r0, ip, lsl #18
     b90:	000001c0 	andeq	r0, r0, r0, asr #3
     b94:	0c419c01 	mcrreq	12, 0, r9, r1, cr1
     b98:	bc340000 	ldclt	0, cr0, [r4], #-0
     b9c:	80000006 	andhi	r0, r0, r6
     ba0:	34000005 	strcc	r0, [r0], #-5
     ba4:	000006c7 	andeq	r0, r0, r7, asr #13
     ba8:	0000059e 	muleq	r0, lr, r5
     bac:	0006d034 	andeq	sp, r6, r4, lsr r0
     bb0:	0005d200 	andeq	sp, r5, r0, lsl #4
     bb4:	06db3400 	ldrbeq	r3, [fp], r0, lsl #8
     bb8:	060c0000 	streq	r0, [ip], -r0
     bbc:	e43b0000 	ldrt	r0, [fp], #-0
     bc0:	35000006 	strcc	r0, [r0, #-6]
     bc4:	000006ed 	andeq	r0, r0, sp, ror #13
     bc8:	00000640 	andeq	r0, r0, r0, asr #12
     bcc:	0006f635 	andeq	pc, r6, r5, lsr r6	; <UNPREDICTABLE>
     bd0:	00069900 	andeq	r9, r6, r0, lsl #18
     bd4:	05c63c00 	strbeq	r3, [r6, #3072]	; 0xc00
     bd8:	99100000 	ldmdbls	r0, {}	; <UNPREDICTABLE>
     bdc:	00200000 	eoreq	r0, r0, r0
     be0:	70010000 	andvc	r0, r1, r0
     be4:	00000c13 	andeq	r0, r0, r3, lsl ip
     be8:	0005e134 	andeq	lr, r5, r4, lsr r1
     bec:	0006c500 	andeq	ip, r6, r0, lsl #10
     bf0:	05d63400 	ldrbeq	r3, [r6, #1024]	; 0x400
     bf4:	06f90000 	ldrbteq	r0, [r9], r0
     bf8:	20390000 	eorscs	r0, r9, r0
     bfc:	35000000 	strcc	r0, [r0, #-0]
     c00:	000005ea 	andeq	r0, r0, sl, ror #11
     c04:	00000717 	andeq	r0, r0, r7, lsl r7
     c08:	0005f335 	andeq	pc, r5, r5, lsr r3	; <UNPREDICTABLE>
     c0c:	00074d00 	andeq	r4, r7, r0, lsl #26
     c10:	2f000000 	svccs	0x00000000
     c14:	00009a34 	andeq	r9, r0, r4, lsr sl
     c18:	00001778 	andeq	r1, r0, r8, ror r7
     c1c:	009a4e2f 	addseq	r4, sl, pc, lsr #28
     c20:	00177800 	andseq	r7, r7, r0, lsl #16
     c24:	9a682f00 	bls	1a0c82c <__bss_end__+0x19fa594>
     c28:	17780000 	ldrbne	r0, [r8, -r0]!
     c2c:	822f0000 	eorhi	r0, pc, #0
     c30:	7800009a 	stmdavc	r0, {r1, r3, r4, r7}
     c34:	2f000017 	svccs	0x00000017
     c38:	00009aa8 	andeq	r9, r0, r8, lsr #21
     c3c:	00001778 	andeq	r1, r0, r8, ror r7
     c40:	04d83000 	ldrbeq	r3, [r8], #0
     c44:	7e010000 	cdpvc	0, 0, cr0, cr1, cr0, {0}
     c48:	00009acc 	andeq	r9, r0, ip, asr #21
     c4c:	0000003c 	andeq	r0, r0, ip, lsr r0
     c50:	0ce09c01 	stcleq	12, cr9, [r0], #4
     c54:	73310000 	teqvc	r1, #0
     c58:	01006769 	tsteq	r0, r9, ror #14
     c5c:	0005a57e 	andeq	sl, r5, lr, ror r5
     c60:	00076d00 	andeq	r6, r7, r0, lsl #26
     c64:	00733100 	rsbseq	r3, r3, r0, lsl #2
     c68:	05bb7e01 	ldreq	r7, [fp, #3585]!	; 0xe01
     c6c:	07990000 	ldreq	r0, [r9, r0]
     c70:	663d0000 	ldrtvs	r0, [sp], -r0
     c74:	01000003 	tsteq	r0, r3
     c78:	0000b27f 	andeq	fp, r0, pc, ror r2
     c7c:	0007c500 	andeq	ip, r7, r0, lsl #10
     c80:	00692d00 	rsbeq	r2, r9, r0, lsl #26
     c84:	05bb8001 	ldreq	r8, [fp, #1]!
     c88:	07e60000 	strbeq	r0, [r6, r0]!
     c8c:	662d0000 	strtvs	r0, [sp], -r0
     c90:	e0810100 	add	r0, r1, r0, lsl #2
     c94:	3000000c 	andcc	r0, r0, ip
     c98:	2e000008 	cdpcs	0, 0, cr0, cr0, cr8, {0}
     c9c:	00009ae0 	andeq	r9, r0, r0, ror #21
     ca0:	0000178d 	andeq	r1, r0, sp, lsl #15
     ca4:	00000cb9 			; <UNDEFINED> instruction: 0x00000cb9
     ca8:	05510129 	ldrbeq	r0, [r1, #-297]	; 0x129
     cac:	009f7403 	addseq	r7, pc, r3, lsl #8
     cb0:	50012900 	andpl	r2, r1, r0, lsl #18
     cb4:	5201f303 	andpl	pc, r1, #201326592	; 0xc000000
     cb8:	9afa2e00 	bls	ffe8c4c0 <__bss_end__+0xffe7a228>
     cbc:	17a80000 	strne	r0, [r8, r0]!
     cc0:	0cd60000 	ldcleq	0, cr0, [r6], {0}
     cc4:	01290000 	teqeq	r9, r0
     cc8:	78030551 	stmdavc	r3, {r0, r4, r6, r8, sl}
     ccc:	2900009f 	stmdbcs	r0, {r0, r1, r2, r3, r4, r7}
     cd0:	75025001 	strvc	r5, [r2, #-1]
     cd4:	082a0000 	stmdaeq	sl!, {}	; <UNPREDICTABLE>
     cd8:	c400009b 	strgt	r0, [r0], #-155	; 0x9b
     cdc:	00000017 	andeq	r0, r0, r7, lsl r0
     ce0:	00bf0406 	adcseq	r0, pc, r6, lsl #8
     ce4:	02360000 	eorseq	r0, r6, #0
     ce8:	08000007 	stmdaeq	r0, {r0, r1, r2}
     cec:	9000009b 	mulls	r0, fp, r0
     cf0:	01000000 	mrseq	r0, (UNDEF: 0)
     cf4:	000d669c 	muleq	sp, ip, r6
     cf8:	070e3400 	streq	r3, [lr, -r0, lsl #8]
     cfc:	08590000 	ldmdaeq	r9, {}^	; <UNPREDICTABLE>
     d00:	19340000 	ldmdbne	r4!, {}	; <UNPREDICTABLE>
     d04:	90000007 	andls	r0, r0, r7
     d08:	34000008 	strcc	r0, [r0], #-8
     d0c:	00000724 	andeq	r0, r0, r4, lsr #14
     d10:	000008b1 			; <UNDEFINED> instruction: 0x000008b1
     d14:	00072f34 	andeq	r2, r7, r4, lsr pc
     d18:	0008e800 	andeq	lr, r8, r0, lsl #16
     d1c:	073a3400 	ldreq	r3, [sl, -r0, lsl #8]!
     d20:	09070000 	stmdbeq	r7, {}	; <UNPREDICTABLE>
     d24:	45340000 	ldrmi	r0, [r4, #-0]!
     d28:	27000007 	strcs	r0, [r0, -r7]
     d2c:	35000009 	strcc	r0, [r0, #-9]
     d30:	0000074e 	andeq	r0, r0, lr, asr #14
     d34:	00000947 	andeq	r0, r0, r7, asr #18
     d38:	00075735 	andeq	r5, r7, r5, lsr r7
     d3c:	00095b00 	andeq	r5, r9, r0, lsl #22
     d40:	07603500 	strbeq	r3, [r0, -r0, lsl #10]!
     d44:	09860000 	stmibeq	r6, {}	; <UNPREDICTABLE>
     d48:	69350000 	ldmdbvs	r5!, {}	; <UNPREDICTABLE>
     d4c:	9a000007 	bls	d70 <shift+0xd70>
     d50:	35000009 	strcc	r0, [r0, #-9]
     d54:	00000774 	andeq	r0, r0, r4, ror r7
     d58:	000009b9 			; <UNDEFINED> instruction: 0x000009b9
     d5c:	00077f35 	andeq	r7, r7, r5, lsr pc
     d60:	0009f100 	andeq	pc, r9, r0, lsl #2
     d64:	ec300000 	ldc	0, cr0, [r0], #-0
     d68:	01000004 	tsteq	r0, r4
     d6c:	009b98c1 	addseq	r9, fp, r1, asr #17
     d70:	0000be00 	andeq	fp, r0, r0, lsl #28
     d74:	499c0100 	ldmibmi	ip, {r8}
     d78:	3100000e 	tstcc	r0, lr
     d7c:	00676973 	rsbeq	r6, r7, r3, ror r9
     d80:	05a5c101 	streq	ip, [r5, #257]!	; 0x101
     d84:	0a110000 	beq	440d8c <__bss_end__+0x42eaf4>
     d88:	723d0000 	eorsvc	r0, sp, #0
     d8c:	01000005 	tsteq	r0, r5
     d90:	0005bbc2 	andeq	fp, r5, r2, asr #23
     d94:	000a3d00 	andeq	r3, sl, r0, lsl #26
     d98:	02863d00 	addeq	r3, r6, #0, 26
     d9c:	c3010000 	movwgt	r0, #4096	; 0x1000
     da0:	000005bb 			; <UNDEFINED> instruction: 0x000005bb
     da4:	00000a5e 	andeq	r0, r0, lr, asr sl
     da8:	0005ee3d 	andeq	lr, r5, sp, lsr lr
     dac:	a5c40100 	strbge	r0, [r4, #256]	; 0x100
     db0:	7f000005 	svcvc	0x00000005
     db4:	3e00000a 	cdpcc	0, 0, cr0, cr0, cr10, {0}
     db8:	0000027e 	andeq	r0, r0, lr, ror r2
     dbc:	05bbc501 	ldreq	ip, [fp, #1281]!	; 0x501
     dc0:	91020000 	mrsls	r0, (UNDEF: 2)
     dc4:	00633f00 	rsbeq	r3, r3, r0, lsl #30
     dc8:	078bc601 	streq	ip, [fp, r1, lsl #12]
     dcc:	91020000 	mrsls	r0, (UNDEF: 2)
     dd0:	005a4004 	subseq	r4, sl, r4
     dd4:	c8010000 	stmdagt	r1, {}	; <UNPREDICTABLE>
     dd8:	0000002c 	andeq	r0, r0, ip, lsr #32
     ddc:	00000aa0 	andeq	r0, r0, r0, lsr #21
     de0:	00005f27 	andeq	r5, r0, r7, lsr #30
     de4:	2cc80100 	stfcse	f0, [r8], {0}
     de8:	01000000 	mrseq	r0, (UNDEF: 0)
     dec:	03e5275e 	mvneq	r2, #24641536	; 0x1780000
     df0:	c8010000 	stmdagt	r1, {}	; <UNPREDICTABLE>
     df4:	0000002c 	andeq	r0, r0, ip, lsr #32
     df8:	69275701 	stmdbvs	r7!, {r0, r8, r9, sl, ip, lr}
     dfc:	01000000 	mrseq	r0, (UNDEF: 0)
     e00:	00002cc8 	andeq	r2, r0, r8, asr #25
     e04:	2d560100 	ldfcse	f0, [r6, #-0]
     e08:	0078616d 	rsbseq	r6, r8, sp, ror #2
     e0c:	002cc801 	eoreq	ip, ip, r1, lsl #16
     e10:	0ab30000 	beq	fecc0e18 <__bss_end__+0xfecaeb80>
     e14:	691b0000 	ldmdbvs	fp, {}	; <UNPREDICTABLE>
     e18:	33c90100 	biccc	r0, r9, #0, 2
     e1c:	2d000000 	stccs	0, cr0, [r0, #-0]
     e20:	c901006a 	stmdbgt	r1, {r1, r3, r5, r6}
     e24:	00000033 	andeq	r0, r0, r3, lsr r0
     e28:	00000b1f 	andeq	r0, r0, pc, lsl fp
     e2c:	01006b2d 	tsteq	r0, sp, lsr #22
     e30:	000033c9 	andeq	r3, r0, r9, asr #7
     e34:	000b5600 	andeq	r5, fp, r0, lsl #12
     e38:	074a4000 	strbeq	r4, [sl, -r0]
     e3c:	c9010000 	stmdbgt	r1, {}	; <UNPREDICTABLE>
     e40:	00000033 	andeq	r0, r0, r3, lsr r0
     e44:	00000b94 	muleq	r0, r4, fp
     e48:	06053300 	streq	r3, [r5], -r0, lsl #6
     e4c:	9c580000 	mrals	r0, r8, acc0
     e50:	001a0000 	andseq	r0, sl, r0
     e54:	9c010000 	stcls	0, cr0, [r1], {-0}
     e58:	00000e89 	andeq	r0, r0, r9, lsl #29
     e5c:	00061634 	andeq	r1, r6, r4, lsr r6
     e60:	000bde00 	andeq	sp, fp, r0, lsl #28
     e64:	9c6c2800 	stclls	8, cr2, [ip], #-0
     e68:	17d90000 	ldrbne	r0, [r9, r0]
     e6c:	01290000 	teqeq	r9, r0
     e70:	e1030553 	tst	r3, r3, asr r5
     e74:	29000093 	stmdbcs	r0, {r0, r1, r4, r7}
     e78:	38015201 	stmdacc	r1, {r0, r9, ip, lr}
     e7c:	01510129 	cmpeq	r1, r9, lsr #2
     e80:	50012935 	andpl	r2, r1, r5, lsr r9
     e84:	00007402 	andeq	r7, r0, r2, lsl #8
     e88:	07ab4100 	streq	r4, [fp, r0, lsl #2]!
     e8c:	25010000 	strcs	r0, [r1, #-0]
     e90:	00000068 	andeq	r0, r0, r8, rrx
     e94:	000ea503 	andeq	sl, lr, r3, lsl #10
     e98:	07d62000 	ldrbeq	r2, [r6, r0]
     e9c:	26010000 	strcs	r0, [r1], -r0
     ea0:	00000068 	andeq	r0, r0, r8, rrx
     ea4:	07b54200 	ldreq	r4, [r5, r0, lsl #4]!
     ea8:	21010000 	mrscs	r0, (UNDEF: 1)
     eac:	00002c01 	andeq	r2, r0, r1, lsl #24
     eb0:	00878400 	addeq	r8, r7, r0, lsl #8
     eb4:	000b7c00 	andeq	r7, fp, r0, lsl #24
     eb8:	e59c0100 	ldr	r0, [ip, #256]	; 0x100
     ebc:	24000015 	strcs	r0, [r0], #-21
     ec0:	22010069 	andcs	r0, r1, #105	; 0x69
     ec4:	0005bb01 	andeq	fp, r5, r1, lsl #22
     ec8:	000bfc00 	andeq	pc, fp, r0, lsl #24
     ecc:	006a2400 	rsbeq	r2, sl, r0, lsl #8
     ed0:	bb012201 	bllt	496dc <__bss_end__+0x37444>
     ed4:	90000005 	andls	r0, r0, r5
     ed8:	4300000c 	movwmi	r0, #12
     edc:	000005d0 	ldrdeq	r0, [r0], -r0	; <UNPREDICTABLE>
     ee0:	e5012301 	str	r2, [r1, #-769]	; 0x301
     ee4:	04000015 	streq	r0, [r0], #-21
     ee8:	7fb59891 	svcvc	0x00b59891
     eec:	67697325 	strbvs	r7, [r9, -r5, lsr #6]!
     ef0:	01240100 	teqeq	r4, r0, lsl #2
     ef4:	000015f5 	strdeq	r1, [r0], -r5
     ef8:	b7989104 	ldrlt	r9, [r8, r4, lsl #2]
     efc:	072a437f 			; <UNDEFINED> instruction: 0x072a437f
     f00:	25010000 	strcs	r0, [r1, #-0]
     f04:	00160501 	andseq	r0, r6, r1, lsl #10
     f08:	98910400 	ldmls	r1, {sl}
     f0c:	cd437fb6 	stclgt	15, cr7, [r3, #-728]	; 0xfffffd28
     f10:	01000005 	tsteq	r0, r5
     f14:	16150127 	ldrne	r0, [r5], -r7, lsr #2
     f18:	91040000 	mrsls	r0, (UNDEF: 4)
     f1c:	437fb4b8 	cmnmi	pc, #184, 8	; 0xb8000000
     f20:	0000072f 	andeq	r0, r0, pc, lsr #14
     f24:	25012801 	strcs	r2, [r1, #-2049]	; 0x801
     f28:	04000016 	streq	r0, [r0], #-22
     f2c:	7fbf9891 	svcvc	0x00bf9891
     f30:	00004443 	andeq	r4, r0, r3, asr #8
     f34:	01290100 	teqeq	r9, r0, lsl #2
     f38:	00001625 	andeq	r1, r0, r5, lsr #12
     f3c:	5f989103 	svcpl	0x00989103
     f40:	00062044 	andeq	r2, r6, r4, asr #32
     f44:	012c0100 	teqeq	ip, r0, lsl #2
     f48:	0000002c 	andeq	r0, r0, ip, lsr #32
     f4c:	00000d0d 	andeq	r0, r0, sp, lsl #26
     f50:	0003d044 	andeq	sp, r3, r4, asr #32
     f54:	01480100 	mrseq	r0, (UNDEF: 88)
     f58:	00000033 	andeq	r0, r0, r3, lsr r0
     f5c:	00000d47 	andeq	r0, r0, r7, asr #26
     f60:	00034043 	andeq	r4, r3, r3, asr #32
     f64:	017e0100 	cmneq	lr, r0, lsl #2
     f68:	00001636 	andeq	r1, r0, r6, lsr r6
     f6c:	b4c89104 	strblt	r9, [r8], #260	; 0x104
     f70:	07fa457f 			; <UNDEFINED> instruction: 0x07fa457f
     f74:	7f010000 	svcvc	0x00010000
     f78:	00003301 	andeq	r3, r0, r1, lsl #6
     f7c:	004f4300 	subeq	r4, pc, r0, lsl #6
     f80:	9f010000 	svcls	0x00010000
     f84:	00163601 	andseq	r3, r6, r1, lsl #12
     f88:	f0910400 			; <UNDEFINED> instruction: 0xf0910400
     f8c:	0f447fb4 	svceq	0x00447fb4
     f90:	01000006 	tsteq	r0, r6
     f94:	003301b3 	ldrhteq	r0, [r3], -r3
     f98:	0d690000 	stcleq	0, cr0, [r9, #-0]
     f9c:	5c460000 	marpl	acc0, r0, r6
     fa0:	12000006 	andne	r0, r0, #6
     fa4:	40000088 	andmi	r0, r0, r8, lsl #1
     fa8:	01000000 	mrseq	r0, (UNDEF: 0)
     fac:	104f015d 	subne	r0, pc, sp, asr r1	; <UNPREDICTABLE>
     fb0:	73340000 	teqvc	r4, #0
     fb4:	a7000006 	strge	r0, [r0, -r6]
     fb8:	3400000d 	strcc	r0, [r0], #-13
     fbc:	00000692 	muleq	r0, r2, r6
     fc0:	00000dc9 	andeq	r0, r0, r9, asr #27
     fc4:	00069b34 	andeq	r9, r6, r4, lsr fp
     fc8:	000de900 	andeq	lr, sp, r0, lsl #18
     fcc:	06873400 	streq	r3, [r7], r0, lsl #8
     fd0:	0e0b0000 	cdpeq	0, 0, cr0, cr11, cr0, {0}
     fd4:	7c380000 	ldcvc	0, cr0, [r8], #-0
     fd8:	34000006 	strcc	r0, [r0], #-6
     fdc:	00000668 	andeq	r0, r0, r8, ror #12
     fe0:	00000e3c 	andeq	r0, r0, ip, lsr lr
     fe4:	00004039 	andeq	r4, r0, r9, lsr r0
     fe8:	06a63500 	strteq	r3, [r6], r0, lsl #10
     fec:	0ebb0000 	cdpeq	0, 11, cr0, cr11, cr0, {0}
     ff0:	29370000 	ldmdbcs	r7!, {}	; <UNPREDICTABLE>
     ff4:	12000006 	andne	r0, r0, #6
     ff8:	60000088 	andvs	r0, r0, r8, lsl #1
     ffc:	01000000 	mrseq	r0, (UNDEF: 0)
    1000:	063e385b 			; <UNDEFINED> instruction: 0x063e385b
    1004:	47380000 	ldrmi	r0, [r8, -r0]!
    1008:	38000006 	stmdacc	r0, {r1, r2}
    100c:	00000635 	andeq	r0, r0, r5, lsr r6
    1010:	00006039 	andeq	r6, r0, r9, lsr r0
    1014:	06523500 	ldrbeq	r3, [r2], -r0, lsl #10
    1018:	0f5f0000 	svceq	0x005f0000
    101c:	8a2f0000 	bhi	bc1024 <__bss_end__+0xbaed8c>
    1020:	6c000088 	stcvs	0, cr0, [r0], {136}	; 0x88
    1024:	2f000017 	svccs	0x00000017
    1028:	000088b0 			; <UNDEFINED> instruction: 0x000088b0
    102c:	0000176c 	andeq	r1, r0, ip, ror #14
    1030:	0088d02f 	addeq	sp, r8, pc, lsr #32
    1034:	00176c00 	andseq	r6, r7, r0, lsl #24
    1038:	88f02f00 	ldmhi	r0!, {r8, r9, sl, fp, sp}^
    103c:	176c0000 	strbne	r0, [ip, -r0]!
    1040:	202f0000 	eorcs	r0, pc, r0
    1044:	6c000089 	stcvs	0, cr0, [r0], {137}	; 0x89
    1048:	00000017 	andeq	r0, r0, r7, lsl r0
    104c:	46000000 	strmi	r0, [r0], -r0
    1050:	000006b0 			; <UNDEFINED> instruction: 0x000006b0
    1054:	0000881e 	andeq	r8, r0, lr, lsl r8
    1058:	00000080 	andeq	r0, r0, r0, lsl #1
    105c:	f8016501 			; <UNDEFINED> instruction: 0xf8016501
    1060:	38000010 	stmdacc	r0, {r4}
    1064:	000006c7 	andeq	r0, r0, r7, asr #13
    1068:	0006d038 	andeq	sp, r6, r8, lsr r0
    106c:	06db3800 	ldrbeq	r3, [fp], r0, lsl #16
    1070:	bc380000 	ldclt	0, cr0, [r8], #-0
    1074:	39000006 	stmdbcc	r0, {r1, r2}
    1078:	00000080 	andeq	r0, r0, r0, lsl #1
    107c:	0006e43b 	andeq	lr, r6, fp, lsr r4
    1080:	06ed3500 	strbteq	r3, [sp], r0, lsl #10
    1084:	0fb00000 	svceq	0x00b00000
    1088:	f6350000 			; <UNDEFINED> instruction: 0xf6350000
    108c:	1b000006 	blne	10ac <shift+0x10ac>
    1090:	47000010 	smladmi	r0, r0, r0, r0
    1094:	000005c6 	andeq	r0, r0, r6, asr #11
    1098:	00008a4e 	andeq	r8, r0, lr, asr #20
    109c:	000000a8 	andeq	r0, r0, r8, lsr #1
    10a0:	10c97001 	sbcne	r7, r9, r1
    10a4:	e1380000 	teq	r8, r0
    10a8:	38000005 	stmdacc	r0, {r0, r2}
    10ac:	000005d6 	ldrdeq	r0, [r0], -r6
    10b0:	008a4e48 	addeq	r4, sl, r8, asr #28
    10b4:	0000a800 	andeq	sl, r0, r0, lsl #16
    10b8:	05ea3500 	strbeq	r3, [sl, #1280]!	; 0x500
    10bc:	10470000 	subne	r0, r7, r0
    10c0:	f33b0000 	vhadd.u<illegal width 64>	d0, d11, d0
    10c4:	00000005 	andeq	r0, r0, r5
    10c8:	8b322f00 	blhi	c8ccd0 <__bss_end__+0xc7aa38>
    10cc:	17780000 	ldrbne	r0, [r8, -r0]!
    10d0:	4a2f0000 	bmi	bc10d8 <__bss_end__+0xbaee40>
    10d4:	7800008b 	stmdavc	r0, {r0, r1, r3, r7}
    10d8:	2f000017 	svccs	0x00000017
    10dc:	00008b64 	andeq	r8, r0, r4, ror #22
    10e0:	00001778 	andeq	r1, r0, r8, ror r7
    10e4:	008b7c2f 	addeq	r7, fp, pc, lsr #24
    10e8:	00177800 	andseq	r7, r7, r0, lsl #16
    10ec:	8bcc2f00 	blhi	ff30ccf4 <__bss_end__+0xff2faa5c>
    10f0:	17780000 	ldrbne	r0, [r8, -r0]!
    10f4:	00000000 	andeq	r0, r0, r0
    10f8:	000e8949 	andeq	r8, lr, r9, asr #18
    10fc:	008c2600 	addeq	r2, ip, r0, lsl #12
    1100:	00002e00 	andeq	r2, r0, r0, lsl #28
    1104:	01820100 	orreq	r0, r2, r0, lsl #2
    1108:	00001136 	andeq	r1, r0, r6, lsr r1
    110c:	008c2648 	addeq	r2, ip, r8, asr #12
    1110:	00002e00 	andeq	r2, r0, r0, lsl #28
    1114:	0e994a00 	vfnmseq.f32	s8, s18, s0
    1118:	91030000 	mrsls	r0, (UNDEF: 3)
    111c:	3e285f98 	mcrcc	15, 1, r5, cr8, cr8, {4}
    1120:	0500008c 	streq	r0, [r0, #-140]	; 0x8c
    1124:	29000017 	stmdbcs	r0, {r0, r1, r2, r4}
    1128:	38015201 	stmdacc	r1, {r0, r9, ip, lr}
    112c:	03510129 	cmpeq	r1, #1073741834	; 0x4000000a
    1130:	005f9891 			; <UNDEFINED> instruction: 0x005f9891
    1134:	02490000 	subeq	r0, r9, #0
    1138:	68000007 	stmdavs	r0, {r0, r1, r2}
    113c:	f200008c 	vhadd.s8	d0, d16, d12
    1140:	01000001 	tsteq	r0, r1
    1144:	11b90186 			; <UNDEFINED> instruction: 0x11b90186
    1148:	19340000 	ldmdbne	r4!, {}	; <UNPREDICTABLE>
    114c:	5a000007 	bpl	1170 <shift+0x1170>
    1150:	34000010 	strcc	r0, [r0], #-16
    1154:	00000724 	andeq	r0, r0, r4, lsr #14
    1158:	0000107e 	andeq	r1, r0, lr, ror r0
    115c:	00073a34 	andeq	r3, r7, r4, lsr sl
    1160:	0010a000 	andseq	sl, r0, r0
    1164:	07453400 	strbeq	r3, [r5, -r0, lsl #8]
    1168:	10c00000 	sbcne	r0, r0, r0
    116c:	2f340000 	svccs	0x00340000
    1170:	05000007 	streq	r0, [r0, #-7]
    1174:	34000011 	strcc	r0, [r0], #-17
    1178:	0000070e 	andeq	r0, r0, lr, lsl #14
    117c:	00001145 	andeq	r1, r0, r5, asr #2
    1180:	008c6848 	addeq	r6, ip, r8, asr #16
    1184:	0001f200 	andeq	pc, r1, r0, lsl #4
    1188:	074e3500 	strbeq	r3, [lr, -r0, lsl #10]
    118c:	11670000 	cmnne	r7, r0
    1190:	57350000 	ldrpl	r0, [r5, -r0]!
    1194:	7b000007 	blvc	11b8 <shift+0x11b8>
    1198:	3b000011 	blcc	11e4 <shift+0x11e4>
    119c:	00000760 	andeq	r0, r0, r0, ror #14
    11a0:	0007693b 	andeq	r6, r7, fp, lsr r9
    11a4:	07743500 	ldrbeq	r3, [r4, -r0, lsl #10]!
    11a8:	11a50000 			; <UNDEFINED> instruction: 0x11a50000
    11ac:	7f350000 	svcvc	0x00350000
    11b0:	cf000007 	svcgt	0x00000007
    11b4:	00000011 	andeq	r0, r0, r1, lsl r0
    11b8:	0e894900 	cdpeq	9, 8, cr4, cr9, cr0, {0}
    11bc:	8e5a0000 	cdphi	0, 5, cr0, cr10, cr0, {0}
    11c0:	002e0000 	eoreq	r0, lr, r0
    11c4:	8f010000 	svchi	0x00010000
    11c8:	0011f701 	andseq	pc, r1, r1, lsl #14
    11cc:	8e5a4800 	cdphi	8, 5, cr4, cr10, cr0, {0}
    11d0:	002e0000 	eoreq	r0, lr, r0
    11d4:	994a0000 	stmdbls	sl, {}^	; <UNPREDICTABLE>
    11d8:	0300000e 	movweq	r0, #14
    11dc:	285f9891 	ldmdacs	pc, {r0, r4, r7, fp, ip, pc}^	; <UNPREDICTABLE>
    11e0:	00008e72 	andeq	r8, r0, r2, ror lr
    11e4:	00001705 	andeq	r1, r0, r5, lsl #14
    11e8:	01520129 	cmpeq	r2, r9, lsr #2
    11ec:	51012938 	tstpl	r1, r8, lsr r9
    11f0:	5f989103 	svcpl	0x00989103
    11f4:	4b000000 	blmi	11fc <shift+0x11fc>
    11f8:	00000098 	muleq	r0, r8, r0
    11fc:	0000123b 	andeq	r1, r0, fp, lsr r2
    1200:	00071f44 	andeq	r1, r7, r4, asr #30
    1204:	01960100 	orrseq	r0, r6, r0, lsl #2
    1208:	00000033 	andeq	r0, r0, r3, lsr r0
    120c:	00001205 	andeq	r1, r0, r5, lsl #4
    1210:	008f8628 	addeq	r8, pc, r8, lsr #12
    1214:	0017fa00 	andseq	pc, r7, r0, lsl #20
    1218:	52062900 	andpl	r2, r6, #0, 18
    121c:	93530493 	cmpls	r3, #-1828716544	; 0x93000000
    1220:	7f740e04 	svcvc	0x00740e04
    1224:	25f72cf7 	ldrbcs	r2, [r7, #3319]!	; 0xcf7
    1228:	1e2550f5 	mcrne	0, 1, r5, cr5, cr5, {7}
    122c:	222550f5 	eorcs	r5, r5, #245	; 0xf5
    1230:	05500129 	ldrbeq	r0, [r0, #-297]	; 0x129
    1234:	009fd003 	addseq	sp, pc, r3
    1238:	46000000 	strmi	r0, [r0], -r0
    123c:	00000e89 	andeq	r0, r0, r9, lsl #29
    1240:	00008f92 	muleq	r0, r2, pc	; <UNPREDICTABLE>
    1244:	000000b8 	strheq	r0, [r0], -r8
    1248:	7701a201 	strvc	sl, [r1, -r1, lsl #4]
    124c:	39000012 	stmdbcc	r0, {r1, r4}
    1250:	000000b8 	strheq	r0, [r0], -r8
    1254:	000e994a 	andeq	r9, lr, sl, asr #18
    1258:	b0910400 	addslt	r0, r1, r0, lsl #8
    125c:	aa287fb4 	bge	a21134 <__bss_end__+0xa0ee9c>
    1260:	0500008f 	streq	r0, [r0, #-143]	; 0x8f
    1264:	29000017 	stmdbcs	r0, {r0, r1, r2, r4}
    1268:	38015201 	stmdacc	r1, {r0, r9, ip, lr}
    126c:	04510129 	ldrbeq	r0, [r1], #-297	; 0x129
    1270:	7fb4b091 	svcvc	0x00b4b091
    1274:	49000000 	stmdbmi	r0, {}	; <UNPREDICTABLE>
    1278:	00000e89 	andeq	r0, r0, r9, lsl #29
    127c:	00008fd8 	ldrdeq	r8, [r0], -r8	; <UNPREDICTABLE>
    1280:	0000001e 	andeq	r0, r0, lr, lsl r0
    1284:	b701af01 	strlt	sl, [r1, -r1, lsl #30]
    1288:	48000012 	stmdami	r0, {r1, r4}
    128c:	00008fd8 	ldrdeq	r8, [r0], -r8	; <UNPREDICTABLE>
    1290:	0000001e 	andeq	r0, r0, lr, lsl r0
    1294:	000e994a 	andeq	r9, lr, sl, asr #18
    1298:	b0910400 	addslt	r0, r1, r0, lsl #8
    129c:	e8287fb4 	stmda	r8!, {r2, r4, r5, r7, r8, r9, sl, fp, ip, sp, lr}
    12a0:	0500008f 	streq	r0, [r0, #-143]	; 0x8f
    12a4:	29000017 	stmdbcs	r0, {r0, r1, r2, r4}
    12a8:	38015201 	stmdacc	r1, {r0, r9, ip, lr}
    12ac:	04510129 	ldrbeq	r0, [r1], #-297	; 0x129
    12b0:	7fb4b091 	svcvc	0x00b4b091
    12b4:	4b000000 	blmi	12bc <shift+0x12bc>
    12b8:	000000d0 	ldrdeq	r0, [r0], -r0	; <UNPREDICTABLE>
    12bc:	00001310 	andeq	r1, r0, r0, lsl r3
    12c0:	00077144 	andeq	r7, r7, r4, asr #2
    12c4:	01b80100 			; <UNDEFINED> instruction: 0x01b80100
    12c8:	00000033 	andeq	r0, r0, r3, lsr r0
    12cc:	000012c5 	andeq	r1, r0, r5, asr #5
    12d0:	00021b44 	andeq	r1, r2, r4, asr #22
    12d4:	01b90100 			; <UNDEFINED> instruction: 0x01b90100
    12d8:	00000033 	andeq	r0, r0, r3, lsr r0
    12dc:	00001312 	andeq	r1, r0, r2, lsl r3
    12e0:	00921628 	addseq	r1, r2, r8, lsr #12
    12e4:	0017fa00 	andseq	pc, r7, r0, lsl #20
    12e8:	52062900 	andpl	r2, r6, #0, 18
    12ec:	93530493 	cmpls	r3, #-1828716544	; 0x93000000
    12f0:	a8911304 	ldmge	r1, {r2, r8, r9, ip}
    12f4:	31067fb4 			; <UNDEFINED> instruction: 0x31067fb4
    12f8:	f72cf71c 			; <UNDEFINED> instruction: 0xf72cf71c
    12fc:	2550f525 	ldrbcs	pc, [r0, #-1317]	; 0x525	; <UNPREDICTABLE>
    1300:	2550f51e 	ldrbcs	pc, [r0, #-1310]	; 0x51e	; <UNPREDICTABLE>
    1304:	50012922 	andpl	r2, r1, r2, lsr #18
    1308:	9ff40305 	svcls	0x00f40305
    130c:	00000000 	andeq	r0, r0, r0
    1310:	00060549 	andeq	r0, r6, r9, asr #10
    1314:	00924800 	addseq	r4, r2, r0, lsl #16
    1318:	00001200 	andeq	r1, r0, r0, lsl #4
    131c:	01cc0100 	biceq	r0, ip, r0, lsl #2
    1320:	00001353 	andeq	r1, r0, r3, asr r3
    1324:	00061634 	andeq	r1, r6, r4, lsr r6
    1328:	00133c00 	andseq	r3, r3, r0, lsl #24
    132c:	925a2800 	subsls	r2, sl, #0, 16
    1330:	17d90000 	ldrbne	r0, [r9, r0]
    1334:	01290000 	teqeq	r9, r0
    1338:	e1030553 	tst	r3, r3, asr r5
    133c:	29000093 	stmdbcs	r0, {r0, r1, r4, r7}
    1340:	38015201 	stmdacc	r1, {r0, r9, ip, lr}
    1344:	01510129 	cmpeq	r1, r9, lsr #2
    1348:	50012935 	andpl	r2, r1, r5, lsr r9
    134c:	b4c89104 	strblt	r9, [r8], #260	; 0x104
    1350:	4900007f 	stmdbmi	r0, {r0, r1, r2, r3, r4, r5, r6}
    1354:	00000605 	andeq	r0, r0, r5, lsl #12
    1358:	0000926a 	andeq	r9, r0, sl, ror #4
    135c:	00000012 	andeq	r0, r0, r2, lsl r0
    1360:	9601cd01 	strls	ip, [r1], -r1, lsl #26
    1364:	34000013 	strcc	r0, [r0], #-19
    1368:	00000616 	andeq	r0, r0, r6, lsl r6
    136c:	0000137c 	andeq	r1, r0, ip, ror r3
    1370:	00927c28 	addseq	r7, r2, r8, lsr #24
    1374:	0017d900 	andseq	sp, r7, r0, lsl #18
    1378:	53012900 	movwpl	r2, #6400	; 0x1900
    137c:	93e10305 	mvnls	r0, #335544320	; 0x14000000
    1380:	01290000 	teqeq	r9, r0
    1384:	29380152 	ldmdbcs	r8!, {r1, r4, r6, r8}
    1388:	35015101 	strcc	r5, [r1, #-257]	; 0x101
    138c:	04500129 	ldrbeq	r0, [r0], #-297	; 0x129
    1390:	7fb4f091 	svcvc	0x00b4f091
    1394:	a62e0000 	strtge	r0, [lr], -r0
    1398:	ea000087 	b	15bc <shift+0x15bc>
    139c:	ad000016 	stcge	0, cr0, [r0, #-88]	; 0xffffffa8
    13a0:	29000013 	stmdbcs	r0, {r0, r1, r4}
    13a4:	03055001 	movweq	r5, #20481	; 0x5001
    13a8:	00009f7c 	andeq	r9, r0, ip, ror pc
    13ac:	87ce2e00 	strbhi	r2, [lr, r0, lsl #28]
    13b0:	18110000 	ldmdane	r1, {}	; <UNPREDICTABLE>
    13b4:	13e40000 	mvnne	r0, #0
    13b8:	01290000 	teqeq	r9, r0
    13bc:	29310153 	ldmdbcs	r1!, {r0, r1, r4, r6, r8}
    13c0:	33015201 	movwcc	r5, #4609	; 0x1201
    13c4:	03510129 	cmpeq	r1, #1073741834	; 0x4000000a
    13c8:	29243d40 	stmdbcs	r4!, {r6, r8, sl, fp, ip, sp}
    13cc:	30015001 	andcc	r5, r1, r1
    13d0:	047d0229 	ldrbteq	r0, [sp], #-553	; 0x229
    13d4:	244a4004 	strbcs	r4, [sl], #-4
    13d8:	7d02291f 	stcvc	9, cr2, [r2, #-124]	; 0xffffff84
    13dc:	ac910500 	cfldr32ge	mvfx0, [r1], {0}
    13e0:	00067fb4 			; <UNDEFINED> instruction: 0x00067fb4
    13e4:	0087ec2e 	addeq	lr, r7, lr, lsr #24
    13e8:	0016ea00 	andseq	lr, r6, r0, lsl #20
    13ec:	0013fb00 	andseq	pc, r3, r0, lsl #22
    13f0:	50012900 	andpl	r2, r1, r0, lsl #18
    13f4:	9f7c0305 	svcls	0x007c0305
    13f8:	2e000000 	cdpcs	0, 0, cr0, cr0, cr0, {0}
    13fc:	00008812 	andeq	r8, r0, r2, lsl r8
    1400:	00001811 	andeq	r1, r0, r1, lsl r8
    1404:	00001428 	andeq	r1, r0, r8, lsr #8
    1408:	01530129 	cmpeq	r3, r9, lsr #2
    140c:	52012931 	andpl	r2, r1, #802816	; 0xc4000
    1410:	01293301 	teqeq	r9, r1, lsl #6
    1414:	46400351 			; <UNDEFINED> instruction: 0x46400351
    1418:	50012924 	andpl	r2, r1, r4, lsr #18
    141c:	02293001 	eoreq	r3, r9, #1
    1420:	4004047d 	andmi	r0, r4, sp, ror r4
    1424:	001f2446 	andseq	r2, pc, r6, asr #8
    1428:	0088482f 	addeq	r4, r8, pc, lsr #16
    142c:	00086400 	andeq	r6, r8, r0, lsl #8
    1430:	88542e00 	ldmdahi	r4, {r9, sl, fp, sp}^
    1434:	08e70000 	stmiaeq	r7!, {}^	; <UNPREDICTABLE>
    1438:	144a0000 	strbne	r0, [sl], #-0
    143c:	01290000 	teqeq	r9, r0
    1440:	29400151 	stmdbcs	r0, {r0, r4, r6, r8}^
    1444:	7b025001 	blvc	95450 <__bss_end__+0x831b8>
    1448:	602e0000 	eorvs	r0, lr, r0
    144c:	b0000088 	andlt	r0, r0, r8, lsl #1
    1450:	70000006 	andvc	r0, r0, r6
    1454:	29000014 	stmdbcs	r0, {r2, r4}
    1458:	91045301 	tstls	r4, r1, lsl #6
    145c:	297fb4b8 	ldmdbcs	pc!, {r3, r4, r5, r7, sl, ip, sp, pc}^	; <UNPREDICTABLE>
    1460:	37015201 	strcc	r5, [r1, -r1, lsl #4]
    1464:	01510129 	cmpeq	r1, r9, lsr #2
    1468:	50012940 	andpl	r2, r1, r0, asr #18
    146c:	00007b02 	andeq	r7, r0, r2, lsl #22
    1470:	008bf42e 	addeq	pc, fp, lr, lsr #8
    1474:	00183f00 	andseq	r3, r8, r0, lsl #30
    1478:	00148a00 	andseq	r8, r4, r0, lsl #20
    147c:	52012900 	andpl	r2, r1, #0, 18
    1480:	29800802 	stmibcs	r0, {r1, fp}
    1484:	75025101 	strvc	r5, [r2, #-257]	; 0x101
    1488:	b62e0000 	strtlt	r0, [lr], -r0
    148c:	5c00008e 	stcpl	0, cr0, [r0], {142}	; 0x8e
    1490:	a1000018 	tstge	r0, r8, lsl r0
    1494:	29000014 	stmdbcs	r0, {r2, r4}
    1498:	03055001 	movweq	r5, #20481	; 0x5001
    149c:	00009fc4 	andeq	r9, r0, r4, asr #31
    14a0:	8fd82e00 	svchi	0x00d82e00
    14a4:	0d660000 	stcleq	0, cr0, [r6, #-0]
    14a8:	14c40000 	strbne	r0, [r4], #0
    14ac:	01290000 	teqeq	r9, r0
    14b0:	b8910453 	ldmlt	r1, {r0, r1, r4, r6, sl}
    14b4:	01297fb4 			; <UNDEFINED> instruction: 0x01297fb4
    14b8:	80080252 	andhi	r0, r8, r2, asr r2
    14bc:	03510129 	cmpeq	r1, #1073741834	; 0x4000000a
    14c0:	0004000a 	andeq	r0, r4, sl
    14c4:	00902a2e 	addseq	r2, r0, lr, lsr #20
    14c8:	00185c00 	andseq	r5, r8, r0, lsl #24
    14cc:	0014db00 	andseq	sp, r4, r0, lsl #22
    14d0:	50012900 	andpl	r2, r1, r0, lsl #18
    14d4:	9fe80305 	svcls	0x00e80305
    14d8:	2e000000 	cdpcs	0, 0, cr0, cr0, cr0, {0}
    14dc:	0000922c 	andeq	r9, r0, ip, lsr #4
    14e0:	000017fa 	strdeq	r1, [r0], -sl
    14e4:	000014fb 	strdeq	r1, [r0], -fp
    14e8:	05510129 	ldrbeq	r0, [r1, #-297]	; 0x129
    14ec:	7fb4a091 	svcvc	0x00b4a091
    14f0:	50012906 	andpl	r2, r1, r6, lsl #18
    14f4:	a0180305 	andsge	r0, r8, r5, lsl #6
    14f8:	2f000000 	svccs	0x00000000
    14fc:	00009248 	andeq	r9, r0, r8, asr #4
    1500:	0000185c 	andeq	r1, r0, ip, asr r8
    1504:	00926a2e 	addseq	r6, r2, lr, lsr #20
    1508:	0017fa00 	andseq	pc, r7, r0, lsl #20
    150c:	00151b00 	andseq	r1, r5, r0, lsl #22
    1510:	50012900 	andpl	r2, r1, r0, lsl #18
    1514:	a0540305 	subsge	r0, r4, r5, lsl #6
    1518:	2e000000 	cdpcs	0, 0, cr0, cr0, cr0, {0}
    151c:	0000928c 	andeq	r9, r0, ip, lsl #5
    1520:	000017fa 	strdeq	r1, [r0], -sl
    1524:	00001532 	andeq	r1, r0, r2, lsr r5
    1528:	05500129 	ldrbeq	r0, [r0, #-297]	; 0x129
    152c:	00a07403 	adceq	r7, r0, r3, lsl #8
    1530:	982e0000 	stmdals	lr!, {}	; <UNPREDICTABLE>
    1534:	75000092 	strvc	r0, [r0, #-146]	; 0x92
    1538:	47000018 	smladmi	r0, r8, r0, r0
    153c:	29000015 	stmdbcs	r0, {r0, r2, r4}
    1540:	40035101 	andmi	r5, r3, r1, lsl #2
    1544:	2e00243d 	cfmvdhrcs	mvd0, r2
    1548:	000092a2 	andeq	r9, r0, r2, lsr #5
    154c:	000016d4 	ldrdeq	r1, [r0], -r4
    1550:	0000155e 	andeq	r1, r0, lr, asr r5
    1554:	05500129 	ldrbeq	r0, [r0, #-297]	; 0x129
    1558:	7fb4ac91 	svcvc	0x00b4ac91
    155c:	c02e0006 	eorgt	r0, lr, r6
    1560:	5c000092 	stcpl	0, cr0, [r0], {146}	; 0x92
    1564:	75000018 	strvc	r0, [r0, #-24]
    1568:	29000015 	stmdbcs	r0, {r0, r2, r4}
    156c:	03055001 	movweq	r5, #20481	; 0x5001
    1570:	00009f88 	andeq	r9, r0, r8, lsl #31
    1574:	92d02e00 	sbcsls	r2, r0, #0, 28
    1578:	185c0000 	ldmdane	ip, {}^	; <UNPREDICTABLE>
    157c:	158c0000 	strne	r0, [ip]
    1580:	01290000 	teqeq	r9, r0
    1584:	98030550 	stmdals	r3, {r4, r6, r8, sl}
    1588:	000000a0 	andeq	r0, r0, r0, lsr #1
    158c:	0092d62e 	addseq	sp, r2, lr, lsr #12
    1590:	0016d400 	andseq	sp, r6, r0, lsl #8
    1594:	0015a300 	andseq	sl, r5, r0, lsl #6
    1598:	50012900 	andpl	r2, r1, r0, lsl #18
    159c:	b4ac9105 	strtlt	r9, [ip], #261	; 0x105
    15a0:	2e00067f 	mcrcs	6, 0, r0, cr0, cr15, {3}
    15a4:	000092e4 	andeq	r9, r0, r4, ror #5
    15a8:	0000185c 	andeq	r1, r0, ip, asr r8
    15ac:	000015ba 			; <UNDEFINED> instruction: 0x000015ba
    15b0:	05500129 	ldrbeq	r0, [r0, #-297]	; 0x129
    15b4:	009f8803 	addseq	r8, pc, r3, lsl #16
    15b8:	f82e0000 			; <UNDEFINED> instruction: 0xf82e0000
    15bc:	5c000092 	stcpl	0, cr0, [r0], {146}	; 0x92
    15c0:	d1000018 	tstle	r0, r8, lsl r0
    15c4:	29000015 	stmdbcs	r0, {r0, r2, r4}
    15c8:	03055001 	movweq	r5, #20481	; 0x5001
    15cc:	00009fac 	andeq	r9, r0, ip, lsr #31
    15d0:	92fe2800 	rscsls	r2, lr, #0, 16
    15d4:	16d40000 	ldrbne	r0, [r4], r0
    15d8:	01290000 	teqeq	r9, r0
    15dc:	ac910550 	cfldr32ge	mvfx0, [r1], {80}	; 0x50
    15e0:	00067fb4 			; <UNDEFINED> instruction: 0x00067fb4
    15e4:	00250b00 	eoreq	r0, r5, r0, lsl #22
    15e8:	15f50000 	ldrbne	r0, [r5, #0]!
    15ec:	9e0c0000 	cdpls	0, 0, cr0, cr12, cr0, {0}
    15f0:	0f000000 	svceq	0x00000000
    15f4:	00250b00 	eoreq	r0, r5, r0, lsl #22
    15f8:	16050000 	strne	r0, [r5], -r0
    15fc:	9e0c0000 	cdpls	0, 0, cr0, cr12, cr0, {0}
    1600:	7f000000 	svcvc	0x00000000
    1604:	059a0b00 	ldreq	r0, [sl, #2816]	; 0xb00
    1608:	16150000 	ldrne	r0, [r5], -r0
    160c:	9e0c0000 	cdpls	0, 0, cr0, cr12, cr0, {0}
    1610:	7f000000 	svcvc	0x00000000
    1614:	059a0b00 	ldreq	r0, [sl, #2816]	; 0xb00
    1618:	16250000 	strtne	r0, [r5], -r0
    161c:	9e0c0000 	cdpls	0, 0, cr0, cr12, cr0, {0}
    1620:	0f000000 	svceq	0x00000000
    1624:	05bb0b00 	ldreq	r0, [fp, #2816]!	; 0xb00
    1628:	16360000 	ldrtne	r0, [r6], -r0
    162c:	9e4c0000 	cdpls	0, 4, cr0, cr12, cr0, {0}
    1630:	ff000000 			; <UNDEFINED> instruction: 0xff000000
    1634:	6f0b0003 	svcvs	0x000b0003
    1638:	46000000 	strmi	r0, [r0], -r0
    163c:	0c000016 	stceq	0, cr0, [r0], {22}
    1640:	0000009e 	muleq	r0, lr, r0
    1644:	e5270004 	str	r0, [r7, #-4]!
    1648:	01000007 	tsteq	r0, r7
    164c:	00002c19 	andeq	r2, r0, r9, lsl ip
    1650:	34030500 	strcc	r0, [r3], #-1280	; 0x500
    1654:	4d000122 	stfmis	f0, [r0, #-136]	; 0xffffff78
    1658:	00000301 	andeq	r0, r0, r1, lsl #6
    165c:	0288a804 	addeq	sl, r8, #4, 16	; 0x40000
    1660:	1f4d0000 	svcne	0x004d0000
    1664:	04000004 	streq	r0, [r0], #-4
    1668:	000288a9 	andeq	r8, r2, r9, lsr #17
    166c:	64664e00 	strbtvs	r4, [r6], #-3584	; 0xe00
    1670:	33010069 	movwcc	r0, #4201	; 0x1069
    1674:	0000002c 	andeq	r0, r0, ip, lsr #32
    1678:	22880305 	addcs	r0, r8, #335544320	; 0x14000000
    167c:	d44f0001 	strble	r0, [pc], #-1	; 1684 <shift+0x1684>
    1680:	01000002 	tsteq	r0, r2
    1684:	0000a534 	andeq	sl, r0, r4, lsr r5
    1688:	90030500 	andls	r0, r3, r0, lsl #10
    168c:	4f000122 	svcmi	0x00000122
    1690:	000005e4 	andeq	r0, r0, r4, ror #11
    1694:	16a03501 	strtne	r3, [r0], r1, lsl #10
    1698:	03050000 	movweq	r0, #20480	; 0x5000
    169c:	0001228c 	andeq	r2, r1, ip, lsl #5
    16a0:	16a60406 	strtne	r0, [r6], r6, lsl #8
    16a4:	53180000 	tstpl	r8, #0
    16a8:	50000000 	andpl	r0, r0, r0
    16ac:	0000076c 	andeq	r0, r0, ip, ror #14
    16b0:	a5011e01 	strge	r1, [r1, #-3585]	; 0xe01
    16b4:	05000005 	streq	r0, [r0, #-5]
    16b8:	01229403 	teqeq	r2, r3, lsl #8
    16bc:	056a5100 	strbeq	r5, [sl, #-256]!	; 0x100
    16c0:	22090000 	andcs	r0, r9, #0
    16c4:	00008c04 	andeq	r8, r0, r4, lsl #24
    16c8:	0016d400 	andseq	sp, r6, r0, lsl #8
    16cc:	008c1000 	addeq	r1, ip, r0
    16d0:	00520000 	subseq	r0, r2, r0
    16d4:	00067651 	andeq	r7, r6, r1, asr r6
    16d8:	01610900 	cmneq	r1, r0, lsl #18
    16dc:	0000002c 	andeq	r0, r0, ip, lsr #32
    16e0:	000016ea 	andeq	r1, r0, sl, ror #13
    16e4:	00002c10 	andeq	r2, r0, r0, lsl ip
    16e8:	13530000 	cmpne	r3, #0
    16ec:	0a000005 	beq	1708 <shift+0x1708>
    16f0:	00002ca9 	andeq	r2, r0, r9, lsr #25
    16f4:	00170500 	andseq	r0, r7, r0, lsl #10
    16f8:	02b41000 	adcseq	r1, r4, #0
    16fc:	2c100000 	ldccs	0, cr0, [r0], {-0}
    1700:	52000000 	andpl	r0, r0, #0
    1704:	07805100 	streq	r5, [r0, r0, lsl #2]
    1708:	68090000 	stmdavs	r9, {}	; <UNPREDICTABLE>
    170c:	0002bf01 	andeq	fp, r2, r1, lsl #30
    1710:	00172500 	andseq	r2, r7, r0, lsl #10
    1714:	002c1000 	eoreq	r1, ip, r0
    1718:	a5100000 	ldrge	r0, [r0, #-0]
    171c:	10000000 	andne	r0, r0, r0
    1720:	0000003a 	andeq	r0, r0, sl, lsr r0
    1724:	06ba5400 	ldrteq	r5, [sl], r0, lsl #8
    1728:	78060000 	stmdavc	r6, {}	; <UNPREDICTABLE>
    172c:	00173701 	andseq	r3, r7, r1, lsl #14
    1730:	00331000 	eorseq	r1, r3, r0
    1734:	55000000 	strpl	r0, [r0, #-0]
    1738:	006e6973 	rsbeq	r6, lr, r3, ror r9
    173c:	0025410c 	eoreq	r4, r5, ip, lsl #2
    1740:	174c0000 	strbne	r0, [ip, -r0]
    1744:	25100000 	ldrcs	r0, [r0, #-0]
    1748:	00000000 	andeq	r0, r0, r0
    174c:	00054e56 	andeq	r4, r5, r6, asr lr
    1750:	6c430b00 	mcrrvs	11, 0, r0, r3, cr0
    1754:	10000017 	andne	r0, r0, r7, lsl r0
    1758:	000002b4 			; <UNDEFINED> instruction: 0x000002b4
    175c:	0002b410 	andeq	fp, r2, r0, lsl r4
    1760:	00331000 	eorseq	r1, r3, r0
    1764:	b4100000 	ldrlt	r0, [r0], #-0
    1768:	00000002 	andeq	r0, r0, r2
    176c:	0006bb57 	andeq	fp, r6, r7, asr fp
    1770:	01760600 	cmneq	r6, r0, lsl #12
    1774:	0000002c 	andeq	r0, r0, ip, lsr #32
    1778:	0003df53 	andeq	sp, r3, r3, asr pc
    177c:	25b80c00 	ldrcs	r0, [r8, #3072]!	; 0xc00
    1780:	8d000000 	stchi	0, cr0, [r0, #-0]
    1784:	10000017 	andne	r0, r0, r7, lsl r0
    1788:	00000025 	andeq	r0, r0, r5, lsr #32
    178c:	05125100 	ldreq	r5, [r2, #-256]	; 0x100
    1790:	10040000 	andne	r0, r4, r0
    1794:	000ce001 	andeq	lr, ip, r1
    1798:	0017a800 	andseq	sl, r7, r0, lsl #16
    179c:	02b41000 	adcseq	r1, r4, #0
    17a0:	b4100000 	ldrlt	r0, [r0], #-0
    17a4:	00000002 	andeq	r0, r0, r2
    17a8:	00031b51 	andeq	r1, r3, r1, asr fp
    17ac:	01640400 	cmneq	r4, r0, lsl #8
    17b0:	0000002c 	andeq	r0, r0, ip, lsr #32
    17b4:	000017c4 	andeq	r1, r0, r4, asr #15
    17b8:	000ce010 	andeq	lr, ip, r0, lsl r0
    17bc:	02b41000 	adcseq	r1, r4, #0
    17c0:	00520000 	subseq	r0, r2, r0
    17c4:	00067553 	andeq	r7, r6, r3, asr r5
    17c8:	2ced0400 	cfstrdcs	mvd0, [sp]
    17cc:	d9000000 	stmdble	r0, {}	; <UNPREDICTABLE>
    17d0:	10000017 	andne	r0, r0, r7, lsl r0
    17d4:	00000ce0 	andeq	r0, r0, r0, ror #25
    17d8:	02b35400 	adcseq	r5, r3, #0, 8
    17dc:	fd060000 	stc2	0, cr0, [r6, #-0]
    17e0:	0017fa02 	andseq	pc, r7, r2, lsl #20
    17e4:	00a51000 	adceq	r1, r5, r0
    17e8:	3a100000 	bcc	4017f0 <__bss_end__+0x3ef558>
    17ec:	10000000 	andne	r0, r0, r0
    17f0:	0000003a 	andeq	r0, r0, sl, lsr r0
    17f4:	0002ca10 	andeq	ip, r2, r0, lsl sl
    17f8:	1c510000 	mrane	r0, r1, acc0
    17fc:	04000003 	streq	r0, [r0], #-3
    1800:	002c016a 	eoreq	r0, ip, sl, ror #2
    1804:	18110000 	ldmdane	r1, {}	; <UNPREDICTABLE>
    1808:	b4100000 	ldrlt	r0, [r0], #-0
    180c:	52000002 	andpl	r0, r0, #2
    1810:	02695300 	rsbeq	r5, r9, #0, 6
    1814:	390d0000 	stmdbcc	sp, {}	; <UNPREDICTABLE>
    1818:	000000a5 	andeq	r0, r0, r5, lsr #1
    181c:	0000183f 	andeq	r1, r0, pc, lsr r8
    1820:	0000a510 	andeq	sl, r0, r0, lsl r5
    1824:	003a1000 	eorseq	r1, sl, r0
    1828:	2c100000 	ldccs	0, cr0, [r0], {-0}
    182c:	10000000 	andne	r0, r0, r0
    1830:	0000002c 	andeq	r0, r0, ip, lsr #32
    1834:	00002c10 	andeq	r2, r0, r0, lsl ip
    1838:	00811000 	addeq	r1, r1, r0
    183c:	58000000 	stmdapl	r0, {}	; <UNPREDICTABLE>
    1840:	000006a6 	andeq	r0, r0, r6, lsr #13
    1844:	000000a5 	andeq	r0, r0, r5, lsr #1
    1848:	0000185c 	andeq	r1, r0, ip, asr r8
    184c:	0000a510 	andeq	sl, r0, r0, lsl r5
    1850:	02f01000 	rscseq	r1, r0, #0
    1854:	9e100000 	cdpls	0, 1, cr0, cr0, cr0, {0}
    1858:	00000000 	andeq	r0, r0, r0
    185c:	00024e59 	andeq	r4, r2, r9, asr lr
    1860:	58000e00 	stmdapl	r0, {r9, sl, fp}
    1864:	2c000002 	stccs	0, cr0, [r0], {2}
    1868:	75000000 	strvc	r0, [r0, #-0]
    186c:	10000018 	andne	r0, r0, r8, lsl r0
    1870:	000002b4 			; <UNDEFINED> instruction: 0x000002b4
    1874:	035f5a00 	cmpeq	pc, #0, 20
    1878:	4c0d0000 	stcmi	0, cr0, [sp], {-0}
    187c:	0000002c 	andeq	r0, r0, ip, lsr #32
    1880:	0000a510 	andeq	sl, r0, r0, lsl r5
    1884:	003a1000 	eorseq	r1, sl, r0
    1888:	00000000 	andeq	r0, r0, r0

Disassembly of section .debug_abbrev:

00000000 <.debug_abbrev>:
   0:	25011101 	strcs	r1, [r1, #-257]	; 0x101
   4:	030b130e 	movweq	r1, #45838	; 0xb30e
   8:	550e1b0e 	strpl	r1, [lr, #-2830]	; 0xb0e
   c:	10011117 	andne	r1, r1, r7, lsl r1
  10:	02000017 	andeq	r0, r0, #23
  14:	0b0b0024 	bleq	2c00ac <__bss_end__+0x2ade14>
  18:	0e030b3e 	vmoveq.16	d3[0], r0
  1c:	24030000 	strcs	r0, [r3], #-0
  20:	3e0b0b00 	vmlacc.f64	d0, d11, d0
  24:	0008030b 	andeq	r0, r8, fp, lsl #6
  28:	00160400 	andseq	r0, r6, r0, lsl #8
  2c:	0b3a0e03 	bleq	e83840 <__bss_end__+0xe715a8>
  30:	13490b3b 	movtne	r0, #39739	; 0x9b3b
  34:	0f050000 	svceq	0x00050000
  38:	000b0b00 	andeq	r0, fp, r0, lsl #22
  3c:	000f0600 	andeq	r0, pc, r0, lsl #12
  40:	13490b0b 	movtne	r0, #39691	; 0x9b0b
  44:	13070000 	movwne	r0, #28672	; 0x7000
  48:	0b0e0301 	bleq	380c54 <__bss_end__+0x36e9bc>
  4c:	3b0b3a0b 	blcc	2ce880 <__bss_end__+0x2bc5e8>
  50:	0013010b 	andseq	r0, r3, fp, lsl #2
  54:	000d0800 	andeq	r0, sp, r0, lsl #16
  58:	0b3a0e03 	bleq	e8386c <__bss_end__+0xe715d4>
  5c:	13490b3b 	movtne	r0, #39739	; 0x9b3b
  60:	00000b38 	andeq	r0, r0, r8, lsr fp
  64:	03000d09 	movweq	r0, #3337	; 0xd09
  68:	3b0b3a0e 	blcc	2ce8a8 <__bss_end__+0x2bc610>
  6c:	38134905 	ldmdacc	r3, {r0, r2, r8, fp, lr}
  70:	0a00000b 	beq	a4 <shift+0xa4>
  74:	0e030016 	mcreq	0, 0, r0, cr3, cr6, {0}
  78:	0b3b0b3a 	bleq	ec2d68 <__bss_end__+0xeb0ad0>
  7c:	010b0000 	mrseq	r0, (UNDEF: 11)
  80:	01134901 	tsteq	r3, r1, lsl #18
  84:	0c000013 	stceq	0, cr0, [r0], {19}
  88:	13490021 	movtne	r0, #36897	; 0x9021
  8c:	00000b2f 	andeq	r0, r0, pc, lsr #22
  90:	4900260d 	stmdbmi	r0, {r0, r2, r3, r9, sl, sp}
  94:	0e000013 	mcreq	0, 0, r0, cr0, cr3, {0}
  98:	0e030016 	mcreq	0, 0, r0, cr3, cr6, {0}
  9c:	053b0b3a 	ldreq	r0, [fp, #-2874]!	; 0xb3a
  a0:	00001349 	andeq	r1, r0, r9, asr #6
  a4:	2701150f 	strcs	r1, [r1, -pc, lsl #10]
  a8:	01134919 	tsteq	r3, r9, lsl r9
  ac:	10000013 	andne	r0, r0, r3, lsl r0
  b0:	13490005 	movtne	r0, #36869	; 0x9005
  b4:	26110000 	ldrcs	r0, [r1], -r0
  b8:	12000000 	andne	r0, r0, #0
  bc:	0e030104 	adfeqs	f0, f3, f4
  c0:	0b3a0b0b 	bleq	e82cf4 <__bss_end__+0xe70a5c>
  c4:	13010b3b 	movwne	r0, #6971	; 0x1b3b
  c8:	28130000 	ldmdacs	r3, {}	; <UNPREDICTABLE>
  cc:	1c0e0300 	stcne	3, cr0, [lr], {-0}
  d0:	1400000d 	strne	r0, [r0], #-13
  d4:	0b0b0117 	bleq	2c0538 <__bss_end__+0x2ae2a0>
  d8:	0b3b0b3a 	bleq	ec2dc8 <__bss_end__+0xeb0b30>
  dc:	00001301 	andeq	r1, r0, r1, lsl #6
  e0:	03000d15 	movweq	r0, #3349	; 0xd15
  e4:	3b0b3a0e 	blcc	2ce924 <__bss_end__+0x2bc68c>
  e8:	0013490b 	andseq	r4, r3, fp, lsl #18
  ec:	000d1600 	andeq	r1, sp, r0, lsl #12
  f0:	0b381349 	bleq	e04e1c <__bss_end__+0xdf2b84>
  f4:	0d170000 	ldceq	0, cr0, [r7, #-0]
  f8:	3a0e0300 	bcc	380d00 <__bss_end__+0x36ea68>
  fc:	490b3b0b 	stmdbmi	fp, {r0, r1, r3, r8, r9, fp, ip, sp}
 100:	0d0b0b13 	vstreq	d0, [fp, #-76]	; 0xffffffb4
 104:	380b0c0b 	stmdacc	fp, {r0, r1, r3, sl, fp}
 108:	1800000b 	stmdane	r0, {r0, r1, r3}
 10c:	13490035 	movtne	r0, #36917	; 0x9035
 110:	2e190000 	cdpcs	0, 1, cr0, cr9, cr0, {0}
 114:	03193f01 	tsteq	r9, #1, 30
 118:	3b0b3a0e 	blcc	2ce958 <__bss_end__+0x2bc6c0>
 11c:	4919270b 	ldmdbmi	r9, {r0, r1, r3, r8, r9, sl, sp}
 120:	010b2013 	tsteq	fp, r3, lsl r0
 124:	1a000013 	bne	178 <shift+0x178>
 128:	08030005 	stmdaeq	r3, {r0, r2}
 12c:	0b3b0b3a 	bleq	ec2e1c <__bss_end__+0xeb0b84>
 130:	00001349 	andeq	r1, r0, r9, asr #6
 134:	0300341b 	movweq	r3, #1051	; 0x41b
 138:	3b0b3a08 	blcc	2ce960 <__bss_end__+0x2bc6c8>
 13c:	0013490b 	andseq	r4, r3, fp, lsl #18
 140:	012e1c00 	teqeq	lr, r0, lsl #24
 144:	0e03193f 	mcreq	9, 0, r1, cr3, cr15, {1}
 148:	053b0b3a 	ldreq	r0, [fp, #-2874]!	; 0xb3a
 14c:	13491927 	movtne	r1, #39207	; 0x9927
 150:	13010b20 	movwne	r0, #6944	; 0x1b20
 154:	051d0000 	ldreq	r0, [sp, #-0]
 158:	3a0e0300 	bcc	380d60 <__bss_end__+0x36eac8>
 15c:	49053b0b 	stmdbmi	r5, {r0, r1, r3, r8, r9, fp, ip, sp}
 160:	1e000013 	mcrne	0, 0, r0, cr0, cr3, {0}
 164:	193f012e 	ldmdbne	pc!, {r1, r2, r3, r5, r8}	; <UNPREDICTABLE>
 168:	0b3a0e03 	bleq	e8397c <__bss_end__+0xe716e4>
 16c:	19270b3b 	stmdbne	r7!, {r0, r1, r3, r4, r5, r8, r9, fp}
 170:	13010b20 	movwne	r0, #6944	; 0x1b20
 174:	051f0000 	ldreq	r0, [pc, #-0]	; 17c <shift+0x17c>
 178:	3a0e0300 	bcc	380d80 <__bss_end__+0x36eae8>
 17c:	490b3b0b 	stmdbmi	fp, {r0, r1, r3, r8, r9, fp, ip, sp}
 180:	20000013 	andcs	r0, r0, r3, lsl r0
 184:	0e030034 	mcreq	0, 0, r0, cr3, cr4, {1}
 188:	0b3b0b3a 	bleq	ec2e78 <__bss_end__+0xeb0be0>
 18c:	00001349 	andeq	r1, r0, r9, asr #6
 190:	3f012e21 	svccc	0x00012e21
 194:	3a0e0319 	bcc	380e00 <__bss_end__+0x36eb68>
 198:	27053b0b 	strcs	r3, [r5, -fp, lsl #22]
 19c:	11134919 	tstne	r3, r9, lsl r9
 1a0:	40061201 	andmi	r1, r6, r1, lsl #4
 1a4:	19429718 	stmdbne	r2, {r3, r4, r8, r9, sl, ip, pc}^
 1a8:	00001301 	andeq	r1, r0, r1, lsl #6
 1ac:	03000522 	movweq	r0, #1314	; 0x522
 1b0:	3b0b3a08 	blcc	2ce9d8 <__bss_end__+0x2bc740>
 1b4:	02134905 	andseq	r4, r3, #81920	; 0x14000
 1b8:	23000017 	movwcs	r0, #23
 1bc:	08030005 	stmdaeq	r3, {r0, r2}
 1c0:	053b0b3a 	ldreq	r0, [fp, #-2874]!	; 0xb3a
 1c4:	18021349 	stmdane	r2, {r0, r3, r6, r8, r9, ip}
 1c8:	34240000 	strtcc	r0, [r4], #-0
 1cc:	3a080300 	bcc	200dd4 <__bss_end__+0x1eeb3c>
 1d0:	49053b0b 	stmdbmi	r5, {r0, r1, r3, r8, r9, fp, ip, sp}
 1d4:	00170213 	andseq	r0, r7, r3, lsl r2
 1d8:	00342500 	eorseq	r2, r4, r0, lsl #10
 1dc:	0b3a0803 	bleq	e821f0 <__bss_end__+0xe6ff58>
 1e0:	1349053b 	movtne	r0, #38203	; 0x953b
 1e4:	00001802 	andeq	r1, r0, r2, lsl #16
 1e8:	03012e26 	movweq	r2, #7718	; 0x1e26
 1ec:	3b0b3a0e 	blcc	2cea2c <__bss_end__+0x2bc794>
 1f0:	1119270b 	tstne	r9, fp, lsl #14
 1f4:	40061201 	andmi	r1, r6, r1, lsl #4
 1f8:	19429718 	stmdbne	r2, {r3, r4, r8, r9, sl, ip, pc}^
 1fc:	00001301 	andeq	r1, r0, r1, lsl #6
 200:	03003427 	movweq	r3, #1063	; 0x427
 204:	3b0b3a0e 	blcc	2cea44 <__bss_end__+0x2bc7ac>
 208:	0213490b 	andseq	r4, r3, #180224	; 0x2c000
 20c:	28000018 	stmdacs	r0, {r3, r4}
 210:	01018289 	smlabbeq	r1, r9, r2, r8
 214:	13310111 	teqne	r1, #1073741828	; 0x40000004
 218:	8a290000 	bhi	a40220 <__bss_end__+0xa2df88>
 21c:	02000182 	andeq	r0, r0, #-2147483616	; 0x80000020
 220:	18429118 	stmdane	r2, {r3, r4, r8, ip, pc}^
 224:	892a0000 	stmdbhi	sl!, {}	; <UNPREDICTABLE>
 228:	11000182 	smlabbne	r0, r2, r1, r0
 22c:	19429501 	stmdbne	r2, {r0, r8, sl, ip, pc}^
 230:	00001331 	andeq	r1, r0, r1, lsr r3
 234:	3f012e2b 	svccc	0x00012e2b
 238:	3a0e0319 	bcc	380ea4 <__bss_end__+0x36ec0c>
 23c:	110b3b0b 	tstne	fp, fp, lsl #22
 240:	40061201 	andmi	r1, r6, r1, lsl #4
 244:	19429718 	stmdbne	r2, {r3, r4, r8, r9, sl, ip, pc}^
 248:	00001301 	andeq	r1, r0, r1, lsl #6
 24c:	0300342c 	movweq	r3, #1068	; 0x42c
 250:	3b0b3a08 	blcc	2cea78 <__bss_end__+0x2bc7e0>
 254:	0213490b 	andseq	r4, r3, #180224	; 0x2c000
 258:	2d000018 	stccs	0, cr0, [r0, #-96]	; 0xffffffa0
 25c:	08030034 	stmdaeq	r3, {r2, r4, r5}
 260:	0b3b0b3a 	bleq	ec2f50 <__bss_end__+0xeb0cb8>
 264:	17021349 	strne	r1, [r2, -r9, asr #6]
 268:	892e0000 	stmdbhi	lr!, {}	; <UNPREDICTABLE>
 26c:	11010182 	smlabbne	r1, r2, r1, r0
 270:	01133101 	tsteq	r3, r1, lsl #2
 274:	2f000013 	svccs	0x00000013
 278:	00018289 	andeq	r8, r1, r9, lsl #5
 27c:	13310111 	teqne	r1, #1073741828	; 0x40000004
 280:	2e300000 	cdpcs	0, 3, cr0, cr0, cr0, {0}
 284:	03193f01 	tsteq	r9, #1, 30
 288:	3b0b3a0e 	blcc	2ceac8 <__bss_end__+0x2bc830>
 28c:	1119270b 	tstne	r9, fp, lsl #14
 290:	40061201 	andmi	r1, r6, r1, lsl #4
 294:	19429718 	stmdbne	r2, {r3, r4, r8, r9, sl, ip, pc}^
 298:	00001301 	andeq	r1, r0, r1, lsl #6
 29c:	03000531 	movweq	r0, #1329	; 0x531
 2a0:	3b0b3a08 	blcc	2ceac8 <__bss_end__+0x2bc830>
 2a4:	0213490b 	andseq	r4, r3, #180224	; 0x2c000
 2a8:	32000017 	andcc	r0, r0, #23
 2ac:	0e030034 	mcreq	0, 0, r0, cr3, cr4, {1}
 2b0:	19341349 	ldmdbne	r4!, {r0, r3, r6, r8, r9, ip}
 2b4:	00001802 	andeq	r1, r0, r2, lsl #16
 2b8:	31012e33 	tstcc	r1, r3, lsr lr
 2bc:	12011113 	andne	r1, r1, #-1073741820	; 0xc0000004
 2c0:	97184006 	ldrls	r4, [r8, -r6]
 2c4:	13011942 	movwne	r1, #6466	; 0x1942
 2c8:	05340000 	ldreq	r0, [r4, #-0]!
 2cc:	02133100 	andseq	r3, r3, #0, 2
 2d0:	35000017 	strcc	r0, [r0, #-23]
 2d4:	13310034 	teqne	r1, #52	; 0x34
 2d8:	00001702 	andeq	r1, r0, r2, lsl #14
 2dc:	31012e36 	tstcc	r1, r6, lsr lr
 2e0:	12011113 	andne	r1, r1, #-1073741820	; 0xc0000004
 2e4:	96184006 	ldrls	r4, [r8], -r6
 2e8:	13011942 	movwne	r1, #6466	; 0x1942
 2ec:	1d370000 	ldcne	0, cr0, [r7, #-0]
 2f0:	52133101 	andspl	r3, r3, #1073741824	; 0x40000000
 2f4:	58175501 	ldmdapl	r7, {r0, r8, sl, ip, lr}
 2f8:	000b590b 	andeq	r5, fp, fp, lsl #18
 2fc:	00053800 	andeq	r3, r5, r0, lsl #16
 300:	00001331 	andeq	r1, r0, r1, lsr r3
 304:	55010b39 	strpl	r0, [r1, #-2873]	; 0xb39
 308:	3a000017 	bcc	36c <shift+0x36c>
 30c:	13310005 	teqne	r1, #5
 310:	00001802 	andeq	r1, r0, r2, lsl #16
 314:	3100343b 	tstcc	r0, fp, lsr r4
 318:	3c000013 	stccc	0, cr0, [r0], {19}
 31c:	1331011d 	teqne	r1, #1073741831	; 0x40000007
 320:	17550152 			; <UNDEFINED> instruction: 0x17550152
 324:	0b590b58 	bleq	164308c <__bss_end__+0x1630df4>
 328:	00001301 	andeq	r1, r0, r1, lsl #6
 32c:	0300053d 	movweq	r0, #1341	; 0x53d
 330:	3b0b3a0e 	blcc	2ceb70 <__bss_end__+0x2bc8d8>
 334:	0213490b 	andseq	r4, r3, #180224	; 0x2c000
 338:	3e000017 	mcrcc	0, 0, r0, cr0, cr7, {0}
 33c:	0e030005 	cdpeq	0, 0, cr0, cr3, cr5, {0}
 340:	0b3b0b3a 	bleq	ec3030 <__bss_end__+0xeb0d98>
 344:	18021349 	stmdane	r2, {r0, r3, r6, r8, r9, ip}
 348:	053f0000 	ldreq	r0, [pc, #-0]!	; 350 <shift+0x350>
 34c:	3a080300 	bcc	200f54 <__bss_end__+0x1eecbc>
 350:	490b3b0b 	stmdbmi	fp, {r0, r1, r3, r8, r9, fp, ip, sp}
 354:	00180213 	andseq	r0, r8, r3, lsl r2
 358:	00344000 	eorseq	r4, r4, r0
 35c:	0b3a0e03 	bleq	e83b70 <__bss_end__+0xe718d8>
 360:	13490b3b 	movtne	r0, #39739	; 0x9b3b
 364:	00001702 	andeq	r1, r0, r2, lsl #14
 368:	03012e41 	movweq	r2, #7745	; 0x1e41
 36c:	3b0b3a0e 	blcc	2cebac <__bss_end__+0x2bc914>
 370:	4919270b 	ldmdbmi	r9, {r0, r1, r3, r8, r9, sl, sp}
 374:	010b2013 	tsteq	fp, r3, lsl r0
 378:	42000013 	andmi	r0, r0, #19
 37c:	193f012e 	ldmdbne	pc!, {r1, r2, r3, r5, r8}	; <UNPREDICTABLE>
 380:	0b3a0e03 	bleq	e83b94 <__bss_end__+0xe718fc>
 384:	1349053b 	movtne	r0, #38203	; 0x953b
 388:	06120111 			; <UNDEFINED> instruction: 0x06120111
 38c:	42971840 	addsmi	r1, r7, #64, 16	; 0x400000
 390:	00130119 	andseq	r0, r3, r9, lsl r1
 394:	00344300 	eorseq	r4, r4, r0, lsl #6
 398:	0b3a0e03 	bleq	e83bac <__bss_end__+0xe71914>
 39c:	1349053b 	movtne	r0, #38203	; 0x953b
 3a0:	00001802 	andeq	r1, r0, r2, lsl #16
 3a4:	03003444 	movweq	r3, #1092	; 0x444
 3a8:	3b0b3a0e 	blcc	2cebe8 <__bss_end__+0x2bc950>
 3ac:	02134905 	andseq	r4, r3, #81920	; 0x14000
 3b0:	45000017 	strmi	r0, [r0, #-23]
 3b4:	0e030034 	mcreq	0, 0, r0, cr3, cr4, {1}
 3b8:	053b0b3a 	ldreq	r0, [fp, #-2874]!	; 0xb3a
 3bc:	00001349 	andeq	r1, r0, r9, asr #6
 3c0:	31011d46 	tstcc	r1, r6, asr #26
 3c4:	55015213 	strpl	r5, [r1, #-531]	; 0x213
 3c8:	590b5817 	stmdbpl	fp, {r0, r1, r2, r4, fp, ip, lr}
 3cc:	00130105 	andseq	r0, r3, r5, lsl #2
 3d0:	011d4700 	tsteq	sp, r0, lsl #14
 3d4:	01111331 	tsteq	r1, r1, lsr r3
 3d8:	0b580612 	bleq	1601c28 <__bss_end__+0x15ef990>
 3dc:	13010b59 	movwne	r0, #7001	; 0x1b59
 3e0:	0b480000 	bleq	12003e8 <__bss_end__+0x11ee150>
 3e4:	12011101 	andne	r1, r1, #1073741824	; 0x40000000
 3e8:	49000006 	stmdbmi	r0, {r1, r2}
 3ec:	1331011d 	teqne	r1, #1073741831	; 0x40000007
 3f0:	06120111 			; <UNDEFINED> instruction: 0x06120111
 3f4:	05590b58 	ldrbeq	r0, [r9, #-2904]	; 0xb58
 3f8:	00001301 	andeq	r1, r0, r1, lsl #6
 3fc:	3100344a 	tstcc	r0, sl, asr #8
 400:	00180213 	andseq	r0, r8, r3, lsl r2
 404:	010b4b00 	tsteq	fp, r0, lsl #22
 408:	13011755 	movwne	r1, #5973	; 0x1755
 40c:	214c0000 	mrscs	r0, (UNDEF: 76)
 410:	2f134900 	svccs	0x00134900
 414:	4d000005 	stcmi	0, cr0, [r0, #-20]	; 0xffffffec
 418:	0e030034 	mcreq	0, 0, r0, cr3, cr4, {1}
 41c:	0b3b0b3a 	bleq	ec310c <__bss_end__+0xeb0e74>
 420:	193f1349 	ldmdbne	pc!, {r0, r3, r6, r8, r9, ip}	; <UNPREDICTABLE>
 424:	0000193c 	andeq	r1, r0, ip, lsr r9
 428:	0300344e 	movweq	r3, #1102	; 0x44e
 42c:	3b0b3a08 	blcc	2cec54 <__bss_end__+0x2bc9bc>
 430:	3f13490b 	svccc	0x0013490b
 434:	00180219 	andseq	r0, r8, r9, lsl r2
 438:	00344f00 	eorseq	r4, r4, r0, lsl #30
 43c:	0b3a0e03 	bleq	e83c50 <__bss_end__+0xe719b8>
 440:	13490b3b 	movtne	r0, #39739	; 0x9b3b
 444:	1802193f 	stmdane	r2, {r0, r1, r2, r3, r4, r5, r8, fp, ip}
 448:	34500000 	ldrbcc	r0, [r0], #-0
 44c:	3a0e0300 	bcc	381054 <__bss_end__+0x36edbc>
 450:	49053b0b 	stmdbmi	r5, {r0, r1, r3, r8, r9, fp, ip, sp}
 454:	02193f13 	andseq	r3, r9, #19, 30	; 0x4c
 458:	51000018 	tstpl	r0, r8, lsl r0
 45c:	193f012e 	ldmdbne	pc!, {r1, r2, r3, r5, r8}	; <UNPREDICTABLE>
 460:	0b3a0e03 	bleq	e83c74 <__bss_end__+0xe719dc>
 464:	1927053b 	stmdbne	r7!, {r0, r1, r3, r4, r5, r8, sl}
 468:	193c1349 	ldmdbne	ip!, {r0, r3, r6, r8, r9, ip}
 46c:	00001301 	andeq	r1, r0, r1, lsl #6
 470:	00001852 	andeq	r1, r0, r2, asr r8
 474:	012e5300 	teqeq	lr, r0, lsl #6
 478:	0e03193f 	mcreq	9, 0, r1, cr3, cr15, {1}
 47c:	0b3b0b3a 	bleq	ec316c <__bss_end__+0xeb0ed4>
 480:	13491927 	movtne	r1, #39207	; 0x9927
 484:	1301193c 	movwne	r1, #6460	; 0x193c
 488:	2e540000 	cdpcs	0, 5, cr0, cr4, cr0, {0}
 48c:	03193f01 	tsteq	r9, #1, 30
 490:	3b0b3a0e 	blcc	2cecd0 <__bss_end__+0x2bca38>
 494:	3c192705 	ldccc	7, cr2, [r9], {5}
 498:	00130119 	andseq	r0, r3, r9, lsl r1
 49c:	012e5500 	teqeq	lr, r0, lsl #10
 4a0:	0803193f 	stmdaeq	r3, {r0, r1, r2, r3, r4, r5, r8, fp, ip}
 4a4:	0b3b0b3a 	bleq	ec3194 <__bss_end__+0xeb0efc>
 4a8:	13491927 	movtne	r1, #39207	; 0x9927
 4ac:	1301193c 	movwne	r1, #6460	; 0x193c
 4b0:	2e560000 	cdpcs	0, 5, cr0, cr6, cr0, {0}
 4b4:	03193f01 	tsteq	r9, #1, 30
 4b8:	3b0b3a0e 	blcc	2cecf8 <__bss_end__+0x2bca60>
 4bc:	3c19270b 	ldccc	7, cr2, [r9], {11}
 4c0:	00130119 	andseq	r0, r3, r9, lsl r1
 4c4:	002e5700 	eoreq	r5, lr, r0, lsl #14
 4c8:	0e03193f 	mcreq	9, 0, r1, cr3, cr15, {1}
 4cc:	053b0b3a 	ldreq	r0, [fp, #-2874]!	; 0xb3a
 4d0:	13491927 	movtne	r1, #39207	; 0x9927
 4d4:	0000193c 	andeq	r1, r0, ip, lsr r9
 4d8:	3f012e58 	svccc	0x00012e58
 4dc:	270e0319 	smladcs	lr, r9, r3, r0
 4e0:	34134919 	ldrcc	r4, [r3], #-2329	; 0x919
 4e4:	01193c19 	tsteq	r9, r9, lsl ip
 4e8:	59000013 	stmdbpl	r0, {r0, r1, r4}
 4ec:	193f012e 	ldmdbne	pc!, {r1, r2, r3, r5, r8}	; <UNPREDICTABLE>
 4f0:	0b3a0e03 	bleq	e83d04 <__bss_end__+0xe71a6c>
 4f4:	0e6e0b3b 	vmoveq.8	d14[5], r0
 4f8:	13491927 	movtne	r1, #39207	; 0x9927
 4fc:	1301193c 	movwne	r1, #6460	; 0x193c
 500:	2e5a0000 	cdpcs	0, 5, cr0, cr10, cr0, {0}
 504:	03193f01 	tsteq	r9, #1, 30
 508:	3b0b3a0e 	blcc	2ced48 <__bss_end__+0x2bcab0>
 50c:	4919270b 	ldmdbmi	r9, {r0, r1, r3, r8, r9, sl, sp}
 510:	00193c13 	andseq	r3, r9, r3, lsl ip
	...

Disassembly of section .debug_line:

00000000 <.debug_line>:
   0:	0000072c 	andeq	r0, r0, ip, lsr #14
   4:	029f0002 	addseq	r0, pc, #2
   8:	01020000 	mrseq	r0, (UNDEF: 2)
   c:	000d0efb 	strdeq	r0, [sp], -fp
  10:	01010101 	tsteq	r1, r1, lsl #2
  14:	01000000 	mrseq	r0, (UNDEF: 0)
  18:	63010000 	movwvs	r0, #4096	; 0x1000
  1c:	72705c3a 	rsbsvc	r5, r0, #14848	; 0x3a00
  20:	6172676f 	cmnvs	r2, pc, ror #14
  24:	6966206d 	stmdbvs	r6!, {r0, r2, r3, r5, r6, sp}^
  28:	5c73656c 	cfldr64pl	mvdx6, [r3], #-432	; 0xfffffe50
  2c:	352d7364 	strcc	r7, [sp, #-868]!	; 0x364
  30:	2e357620 	cfmsuba32cs	mvax1, mvax7, mvfx5, mvfx0
  34:	302e3632 	eorcc	r3, lr, r2, lsr r6
  38:	5c77735c 	ldclpl	3, cr7, [r7], #-368	; 0xfffffe90
  3c:	5c636367 	stclpl	3, cr6, [r3], #-412	; 0xfffffe64
  40:	5c62696c 	stclpl	9, cr6, [r2], #-432	; 0xfffffe50
  44:	5c636367 	stclpl	3, cr6, [r3], #-412	; 0xfffffe64
  48:	2d6d7261 	sfmcs	f7, 2, [sp, #-388]!	; 0xfffffe7c
  4c:	756e696c 	strbvc	r6, [lr, #-2412]!	; 0x96c
  50:	6e672d78 	mcrvs	13, 3, r2, cr7, cr8, {3}
  54:	62616575 	rsbvs	r6, r1, #490733568	; 0x1d400000
  58:	5c666869 	stclpl	8, cr6, [r6], #-420	; 0xfffffe5c
  5c:	2e382e34 	mrccs	14, 1, r2, cr8, cr4, {1}
  60:	6e695c33 	mcrvs	12, 3, r5, cr9, cr3, {1}
  64:	64756c63 	ldrbtvs	r6, [r5], #-3171	; 0xc63
  68:	3a630065 	bcc	18c0204 <__bss_end__+0x18adf6c>
  6c:	6f72705c 	svcvs	0x0072705c
  70:	6d617267 	sfmvs	f7, 2, [r1, #-412]!	; 0xfffffe64
  74:	6c696620 	stclvs	6, cr6, [r9], #-128	; 0xffffff80
  78:	645c7365 	ldrbvs	r7, [ip], #-869	; 0x365
  7c:	20352d73 	eorscs	r2, r5, r3, ror sp
  80:	322e3576 	eorcc	r3, lr, #494927872	; 0x1d800000
  84:	5c302e36 	ldcpl	14, cr2, [r0], #-216	; 0xffffff28
  88:	675c7773 			; <UNDEFINED> instruction: 0x675c7773
  8c:	615c6363 	cmpvs	ip, r3, ror #6
  90:	6c2d6d72 	stcvs	13, cr6, [sp], #-456	; 0xfffffe38
  94:	78756e69 	ldmdavc	r5!, {r0, r3, r5, r6, r9, sl, fp, sp, lr}^
  98:	756e672d 	strbvc	r6, [lr, #-1837]!	; 0x72d
  9c:	69626165 	stmdbvs	r2!, {r0, r2, r5, r6, r8, sp, lr}^
  a0:	6c5c6668 	mrrcvs	6, 6, r6, ip, cr8
  a4:	5c636269 	sfmpl	f6, 2, [r3], #-420	; 0xfffffe5c
  a8:	5c727375 	ldclpl	3, cr7, [r2], #-468	; 0xfffffe2c
  ac:	6c636e69 	stclvs	14, cr6, [r3], #-420	; 0xfffffe5c
  b0:	5c656475 	cfstrdpl	mvd6, [r5], #-468	; 0xfffffe2c
  b4:	73746962 	cmnvc	r4, #1605632	; 0x188000
  b8:	5c3a6300 	ldcpl	3, cr6, [sl], #-0
  bc:	676f7270 			; <UNDEFINED> instruction: 0x676f7270
  c0:	206d6172 	rsbcs	r6, sp, r2, ror r1
  c4:	656c6966 	strbvs	r6, [ip, #-2406]!	; 0x966
  c8:	73645c73 	cmnvc	r4, #29440	; 0x7300
  cc:	7620352d 	strtvc	r3, [r0], -sp, lsr #10
  d0:	36322e35 			; <UNDEFINED> instruction: 0x36322e35
  d4:	735c302e 	cmpvc	ip, #46	; 0x2e
  d8:	63675c77 	cmnvs	r7, #30464	; 0x7700
  dc:	72615c63 	rsbvc	r5, r1, #25344	; 0x6300
  e0:	696c2d6d 	stmdbvs	ip!, {r0, r2, r3, r5, r6, r8, sl, fp, sp}^
  e4:	2d78756e 	cfldr64cs	mvdx7, [r8, #-440]!	; 0xfffffe48
  e8:	65756e67 	ldrbvs	r6, [r5, #-3687]!	; 0xe67
  ec:	68696261 	stmdavs	r9!, {r0, r5, r6, r9, sp, lr}^
  f0:	696c5c66 	stmdbvs	ip!, {r1, r2, r5, r6, sl, fp, ip, lr}^
  f4:	755c6362 	ldrbvc	r6, [ip, #-866]	; 0x362
  f8:	695c7273 	ldmdbvs	ip, {r0, r1, r4, r5, r6, r9, ip, sp, lr}^
  fc:	756c636e 	strbvc	r6, [ip, #-878]!	; 0x36e
 100:	63006564 	movwvs	r6, #1380	; 0x564
 104:	72705c3a 	rsbsvc	r5, r0, #14848	; 0x3a00
 108:	6172676f 	cmnvs	r2, pc, ror #14
 10c:	6966206d 	stmdbvs	r6!, {r0, r2, r3, r5, r6, sp}^
 110:	5c73656c 	cfldr64pl	mvdx6, [r3], #-432	; 0xfffffe50
 114:	352d7364 	strcc	r7, [sp, #-868]!	; 0x364
 118:	2e357620 	cfmsuba32cs	mvax1, mvax7, mvfx5, mvfx0
 11c:	302e3632 	eorcc	r3, lr, r2, lsr r6
 120:	5c77735c 	ldclpl	3, cr7, [r7], #-368	; 0xfffffe90
 124:	5c636367 	stclpl	3, cr6, [r3], #-412	; 0xfffffe64
 128:	2d6d7261 	sfmcs	f7, 2, [sp, #-388]!	; 0xfffffe7c
 12c:	756e696c 	strbvc	r6, [lr, #-2412]!	; 0x96c
 130:	6e672d78 	mcrvs	13, 3, r2, cr7, cr8, {3}
 134:	62616575 	rsbvs	r6, r1, #490733568	; 0x1d400000
 138:	5c666869 	stclpl	8, cr6, [r6], #-420	; 0xfffffe5c
 13c:	6362696c 	cmnvs	r2, #108, 18	; 0x1b0000
 140:	7273755c 	rsbsvc	r7, r3, #92, 10	; 0x17000000
 144:	636e695c 	cmnvs	lr, #92, 18	; 0x170000
 148:	6564756c 	strbvs	r7, [r4, #-1388]!	; 0x56c
 14c:	6d73615c 	ldfvse	f6, [r3, #-368]!	; 0xfffffe90
 150:	6e65672d 	cdpvs	7, 6, cr6, cr5, cr13, {1}
 154:	63697265 	cmnvs	r9, #1342177286	; 0x50000006
 158:	5c3a6300 	ldcpl	3, cr6, [sl], #-0
 15c:	676f7270 			; <UNDEFINED> instruction: 0x676f7270
 160:	206d6172 	rsbcs	r6, sp, r2, ror r1
 164:	656c6966 	strbvs	r6, [ip, #-2406]!	; 0x966
 168:	73645c73 	cmnvc	r4, #29440	; 0x7300
 16c:	7620352d 	strtvc	r3, [r0], -sp, lsr #10
 170:	36322e35 			; <UNDEFINED> instruction: 0x36322e35
 174:	735c302e 	cmpvc	ip, #46	; 0x2e
 178:	63675c77 	cmnvs	r7, #30464	; 0x7700
 17c:	72615c63 	rsbvc	r5, r1, #25344	; 0x6300
 180:	696c2d6d 	stmdbvs	ip!, {r0, r2, r3, r5, r6, r8, sl, fp, sp}^
 184:	2d78756e 	cfldr64cs	mvdx7, [r8, #-440]!	; 0xfffffe48
 188:	65756e67 	ldrbvs	r6, [r5, #-3687]!	; 0xe67
 18c:	68696261 	stmdavs	r9!, {r0, r5, r6, r9, sp, lr}^
 190:	696c5c66 	stmdbvs	ip!, {r1, r2, r5, r6, sl, fp, ip, lr}^
 194:	755c6362 	ldrbvc	r6, [ip, #-866]	; 0x362
 198:	695c7273 	ldmdbvs	ip, {r0, r1, r4, r5, r6, r9, ip, sp, lr}^
 19c:	756c636e 	strbvc	r6, [ip, #-878]!	; 0x36e
 1a0:	6c5c6564 	cfldr64vs	mvdx6, [ip], {100}	; 0x64
 1a4:	78756e69 	ldmdavc	r5!, {r0, r3, r5, r6, r9, sl, fp, sp, lr}^
 1a8:	5c3a6300 	ldcpl	3, cr6, [sl], #-0
 1ac:	676f7270 			; <UNDEFINED> instruction: 0x676f7270
 1b0:	206d6172 	rsbcs	r6, sp, r2, ror r1
 1b4:	656c6966 	strbvs	r6, [ip, #-2406]!	; 0x966
 1b8:	73645c73 	cmnvc	r4, #29440	; 0x7300
 1bc:	7620352d 	strtvc	r3, [r0], -sp, lsr #10
 1c0:	36322e35 			; <UNDEFINED> instruction: 0x36322e35
 1c4:	735c302e 	cmpvc	ip, #46	; 0x2e
 1c8:	63675c77 	cmnvs	r7, #30464	; 0x7700
 1cc:	72615c63 	rsbvc	r5, r1, #25344	; 0x6300
 1d0:	696c2d6d 	stmdbvs	ip!, {r0, r2, r3, r5, r6, r8, sl, fp, sp}^
 1d4:	2d78756e 	cfldr64cs	mvdx7, [r8, #-440]!	; 0xfffffe48
 1d8:	65756e67 	ldrbvs	r6, [r5, #-3687]!	; 0xe67
 1dc:	68696261 	stmdavs	r9!, {r0, r5, r6, r9, sp, lr}^
 1e0:	696c5c66 	stmdbvs	ip!, {r1, r2, r5, r6, sl, fp, ip, lr}^
 1e4:	755c6362 	ldrbvc	r6, [ip, #-866]	; 0x362
 1e8:	695c7273 	ldmdbvs	ip, {r0, r1, r4, r5, r6, r9, ip, sp, lr}^
 1ec:	756c636e 	strbvc	r6, [ip, #-878]!	; 0x36e
 1f0:	735c6564 	cmpvc	ip, #100, 10	; 0x19000000
 1f4:	00007379 	andeq	r7, r0, r9, ror r3
 1f8:	72726f63 	rsbsvc	r6, r2, #396	; 0x18c
 1fc:	74616c65 	strbtvc	r6, [r1], #-3173	; 0xc65
 200:	00632e65 	rsbeq	r2, r3, r5, ror #28
 204:	73000000 	movwvc	r0, #0
 208:	65646474 	strbvs	r6, [r4, #-1140]!	; 0x474
 20c:	00682e66 	rsbeq	r2, r8, r6, ror #28
 210:	74000001 	strvc	r0, [r0], #-1
 214:	73657079 	cmnvc	r5, #121	; 0x79
 218:	0200682e 	andeq	r6, r0, #3014656	; 0x2e0000
 21c:	74730000 	ldrbtvc	r0, [r3], #-0
 220:	2e6f6964 	cdpcs	9, 6, cr6, cr15, cr4, {3}
 224:	00030068 	andeq	r0, r3, r8, rrx
 228:	62696c00 	rsbvs	r6, r9, #0, 24
 22c:	682e6f69 	stmdavs	lr!, {r0, r3, r5, r6, r8, r9, sl, fp, sp, lr}
 230:	00000300 	andeq	r0, r0, r0, lsl #6
 234:	6c647473 	cfstrdvs	mvd7, [r4], #-460	; 0xfffffe34
 238:	682e6269 	stmdavs	lr!, {r0, r3, r5, r6, r9, sp, lr}
 23c:	00000300 	andeq	r0, r0, r0, lsl #6
 240:	2d746e69 	ldclcs	14, cr6, [r4, #-420]!	; 0xfffffe5c
 244:	34366c6c 	ldrtcc	r6, [r6], #-3180	; 0xc6c
 248:	0400682e 	streq	r6, [r0], #-2094	; 0x82e
 24c:	65700000 	ldrbvs	r0, [r0, #-0]!
 250:	655f6672 	ldrbvs	r6, [pc, #-1650]	; fffffbe6 <__bss_end__+0xfffed94e>
 254:	746e6576 	strbtvc	r6, [lr], #-1398	; 0x576
 258:	0500682e 	streq	r6, [r0, #-2094]	; 0x82e
 25c:	6e750000 	cdpvs	0, 7, cr0, cr5, cr0, {0}
 260:	64747369 	ldrbtvs	r7, [r4], #-873	; 0x369
 264:	0300682e 	movweq	r6, #2094	; 0x82e
 268:	63660000 	cmnvs	r6, #0
 26c:	2e6c746e 	cdpcs	4, 6, cr7, cr12, cr14, {3}
 270:	00030068 	andeq	r0, r3, r8, rrx
 274:	73736100 	cmnvc	r3, #0, 2
 278:	2e747265 	cdpcs	2, 7, cr7, cr4, cr5, {3}
 27c:	00030068 	andeq	r0, r3, r8, rrx
 280:	74616d00 	strbtvc	r6, [r1], #-3328	; 0xd00
 284:	6c616368 	stclvs	3, cr6, [r1], #-416	; 0xfffffe60
 288:	682e736c 	stmdavs	lr!, {r2, r3, r5, r6, r8, r9, ip, sp, lr}
 28c:	00000200 	andeq	r0, r0, r0, lsl #4
 290:	6e616d6d 	cdpvs	13, 6, cr6, cr1, cr13, {3}
 294:	0600682e 	streq	r6, [r0], -lr, lsr #16
 298:	623c0000 	eorsvs	r0, ip, #0
 29c:	746c6975 	strbtvc	r6, [ip], #-2421	; 0x975
 2a0:	3e6e692d 	cdpcc	9, 6, cr6, cr14, cr13, {1}
 2a4:	00000000 	andeq	r0, r0, r0
 2a8:	02050000 	andeq	r0, r5, #0
 2ac:	000093e0 	andeq	r9, r0, r0, ror #7
 2b0:	01028003 	tsteq	r2, r3
 2b4:	ad232b15 	fstmdbxge	r3!, {d2-d11}	;@ Deprecated
 2b8:	4a7eb303 	bmi	1facecc <__bss_end__+0x1f9ac34>
 2bc:	1e222c14 	mcrne	12, 1, r2, cr2, cr4, {0}
 2c0:	212d4b22 	teqcs	sp, r2, lsr #22
 2c4:	313d3d2f 	teqcc	sp, pc, lsr #26
 2c8:	ae301e30 	mrcge	14, 1, r1, cr0, cr0, {1}
 2cc:	04020048 	streq	r0, [r2], #-72	; 0x48
 2d0:	02003002 	andeq	r3, r0, #2
 2d4:	8f080204 	svchi	0x00080204
 2d8:	02040200 	andeq	r0, r4, #0, 4
 2dc:	04020021 	streq	r0, [r2], #-33	; 0x21
 2e0:	0200b902 	andeq	fp, r0, #32768	; 0x8000
 2e4:	06210204 	strteq	r0, [r1], -r4, lsl #4
 2e8:	65061208 	strvs	r1, [r6, #-520]	; 0x208
 2ec:	2d218121 	stfcsd	f0, [r1, #-132]!	; 0xffffff7c
 2f0:	02004722 	andeq	r4, r0, #8912896	; 0x880000
 2f4:	2e060104 	adfcss	f0, f6, f4
 2f8:	08090306 	stmdaeq	r9, {r1, r2, r8, r9}
 2fc:	301e303c 	andscc	r3, lr, ip, lsr r0
 300:	00214991 	mlaeq	r1, r1, r9, r4
 304:	06020402 	streq	r0, [r2], -r2, lsl #8
 308:	0402002e 	streq	r0, [r2], #-46	; 0x2e
 30c:	00490602 	subeq	r0, r9, r2, lsl #12
 310:	21020402 	tstcs	r2, r2, lsl #8
 314:	02040200 	andeq	r0, r4, #0, 4
 318:	00113702 	andseq	r3, r1, r2, lsl #14
 31c:	21020402 	tstcs	r2, r2, lsl #8
 320:	9d06ac06 	stcls	12, cr10, [r6, #-24]	; 0xffffffe8
 324:	9d212d21 	stcls	13, cr2, [r1, #-132]!	; 0xffffff7c
 328:	0b034822 	bleq	d23b8 <__bss_end__+0xc0120>
 32c:	2e750366 	cdpcs	3, 7, cr0, cr5, cr6, {3}
 330:	3c200b03 	stccc	11, cr0, [r0], #-12
 334:	914a7503 	cmpls	sl, r3, lsl #10
 338:	2f652f49 	svccs	0x00652f49
 33c:	21113902 	tstcs	r1, r2, lsl #18
 340:	2d214908 	stccs	9, cr4, [r1, #-32]!	; 0xffffffe0
 344:	0e039d21 	cdpeq	13, 0, cr9, cr3, cr1, {1}
 348:	04020020 	streq	r0, [r2], #-32
 34c:	0206f302 	andeq	pc, r6, #134217728	; 0x8000000
 350:	8106124a 	tsthi	r6, sl, asr #4
 354:	49212d21 	stmdbmi	r1!, {r0, r5, r8, sl, fp, sp}
 358:	58700322 	ldmdapl	r0!, {r1, r5, r8, r9}^
 35c:	792e0e03 	stmdbvc	lr!, {r0, r1, r9, sl, fp}
 360:	91683a14 	cmnls	r8, r4, lsl sl
 364:	2f2d212d 	svccs	0x002d212d
 368:	79115202 	ldmdbvc	r1, {r1, r9, ip, lr}
 36c:	03423337 	movteq	r3, #9015	; 0x2337
 370:	0b032e75 	bleq	cbd4c <__bss_end__+0xb9ab4>
 374:	75032e20 	strvc	r2, [r3, #-3616]	; 0xe20
 378:	21819f4a 	orrcs	r9, r1, sl, asr #30
 37c:	3602212d 	strcc	r2, [r2], -sp, lsr #2
 380:	03ab2111 			; <UNDEFINED> instruction: 0x03ab2111
 384:	304b2e11 	subcc	r2, fp, r1, lsl lr
 388:	3e1e302c 	cdpcc	0, 1, cr3, cr14, cr12, {1}
 38c:	005a4c2c 	subseq	r4, sl, ip, lsr #24
 390:	bb020402 	bllt	813a0 <__bss_end__+0x6f108>
 394:	12400206 	subne	r0, r0, #1610612736	; 0x60000000
 398:	033ec706 	teqeq	lr, #1572864	; 0x180000
 39c:	16034a68 	strne	r4, [r3], -r8, ror #20
 3a0:	2220342e 	eorcs	r3, r0, #771751936	; 0x2e000000
 3a4:	0067222c 	rsbeq	r2, r7, ip, lsr #4
 3a8:	2f020402 	svccs	0x00020402
 3ac:	02040200 	andeq	r0, r4, #0, 4
 3b0:	2d21309d 	stccs	0, cr3, [r1, #-628]!	; 0xfffffd8c
 3b4:	3c2e1003 	stccc	0, cr1, [lr], #-12
 3b8:	04020034 	streq	r0, [r2], #-52	; 0x34
 3bc:	2e069301 	cdpcs	3, 0, cr9, cr6, cr1, {0}
 3c0:	01040200 	mrseq	r0, R12_usr
 3c4:	58064c06 	stmdapl	r6, {r1, r2, sl, fp, lr}
 3c8:	02040200 	andeq	r0, r4, #0, 4
 3cc:	02005906 	andeq	r5, r0, #98304	; 0x18000
 3d0:	00ab0204 	adceq	r0, fp, r4, lsl #4
 3d4:	21020402 	tstcs	r2, r2, lsl #8
 3d8:	02040200 	andeq	r0, r4, #0, 4
 3dc:	552c2349 	strpl	r2, [ip, #-841]!	; 0x349
 3e0:	034a0a03 	movteq	r0, #43523	; 0xaa03
 3e4:	0d035873 	stceq	8, cr5, [r3, #-460]	; 0xfffffe34
 3e8:	20730320 	rsbscs	r0, r3, r0, lsr #6
 3ec:	032e1903 	teqeq	lr, #49152	; 0xc000
 3f0:	2a033c6a 	bcs	cf5a0 <__bss_end__+0xbd308>
 3f4:	242a322e 	strtcs	r3, [sl], #-558	; 0x22e
 3f8:	3c790331 	ldclcc	3, cr0, [r9], #-196	; 0xffffff3c
 3fc:	241d2230 	ldrcs	r2, [sp], #-560	; 0x230
 400:	0c031b26 	stceq	11, cr1, [r3], {38}	; 0x26
 404:	2e720320 	cdpcs	3, 7, cr0, cr2, cr0, {1}
 408:	21211d23 	teqcs	r1, r3, lsr #26
 40c:	04020021 	streq	r0, [r2], #-33	; 0x21
 410:	1d412401 	cfstrdne	mvd2, [r1, #-4]
 414:	311c222f 	tstcc	ip, pc, lsr #4
 418:	2f1d241d 	svccs	0x001d241d
 41c:	00222121 	eoreq	r2, r2, r1, lsr #2
 420:	2f010402 	svccs	0x00010402
 424:	0402003e 	streq	r0, [r2], #-62	; 0x3e
 428:	2f3e2f01 	svccs	0x003e2f01
 42c:	221e232f 	andscs	r2, lr, #-1140850688	; 0xbc000000
 430:	223e2240 	eorscs	r2, lr, #64, 4
 434:	6003223e 	andvs	r2, r3, lr, lsr r2
 438:	2e20032e 	cdpcs	3, 2, cr0, cr0, cr14, {1}
 43c:	032e6003 	teqeq	lr, #3
 440:	5b034a24 	blpl	d2cd8 <__bss_end__+0xc0a40>
 444:	5828034a 	stmdapl	r8!, {r1, r3, r6, r8, r9}
 448:	134a0e03 	movtne	r0, #44547	; 0xae03
 44c:	212d212d 	teqcs	sp, sp, lsr #2
 450:	0003024c 	andeq	r0, r3, ip, asr #4
 454:	05000101 	streq	r0, [r0, #-257]	; 0x101
 458:	00874802 	addeq	r4, r7, r2, lsl #16
 45c:	01190300 	tsteq	r9, r0, lsl #6
 460:	3e222c22 	cdpcc	12, 2, cr2, cr2, cr2, {1}
 464:	2d572f3b 	ldclcs	15, cr2, [r7, #-236]	; 0xffffff14
 468:	82037522 	andhi	r7, r3, #142606336	; 0x8800000
 46c:	0c033c02 	stceq	12, cr3, [r3], {2}
 470:	2e74032e 	cdpcs	3, 7, cr0, cr4, cr14, {1}
 474:	032e0c03 	teqeq	lr, #768	; 0x300
 478:	0c032e74 	stceq	14, cr2, [r3], {116}	; 0x74
 47c:	2e74032e 	cdpcs	3, 7, cr0, cr4, cr14, {1}
 480:	87200c03 	strhi	r0, [r0, -r3, lsl #24]!
 484:	79031908 	stmdbvc	r3, {r3, r8, fp, ip}
 488:	08342720 	ldmdaeq	r4!, {r5, r8, r9, sl, sp}
 48c:	7e8c0324 	cdpvc	3, 8, cr0, cr12, cr4, {1}
 490:	01f403ac 	mvnseq	r0, ip, lsr #7
 494:	b3032f2e 	movwlt	r2, #16174	; 0x3f2e
 498:	032c2e7e 	teqeq	ip, #2016	; 0x7e0
 49c:	2f2e01ce 	svccs	0x002e01ce
 4a0:	034a0c03 	movteq	r0, #44035	; 0xac03
 4a4:	69032e0a 	stmdbvs	r3, {r1, r3, r9, sl, fp, sp}
 4a8:	16032f20 	strne	r2, [r3], -r0, lsr #30
 4ac:	3c730320 	ldclcc	3, cr0, [r3], #-128	; 0xffffff80
 4b0:	2e7e8203 	cdpcs	2, 7, cr8, cr14, cr3, {0}
 4b4:	2e028103 	mvfcss	f0, f3
 4b8:	0402004d 	streq	r0, [r2], #-77	; 0x4d
 4bc:	7dfb0302 	ldclvc	3, cr0, [fp, #8]!
 4c0:	02217408 	eoreq	r7, r1, #8, 8	; 0x8000000
 4c4:	57211137 			; <UNDEFINED> instruction: 0x57211137
 4c8:	492fab21 	stmdbmi	pc!, {r0, r5, r8, r9, fp, sp, pc}	; <UNPREDICTABLE>
 4cc:	0f03b921 	svceq	0x0003b921
 4d0:	01870220 	orreq	r0, r7, r0, lsr #4
 4d4:	65212d19 	strvs	r2, [r1, #-3353]!	; 0xd19
 4d8:	11380221 	teqne	r8, r1, lsr #4
 4dc:	1103c73d 	tstne	r3, sp, lsr r7
 4e0:	5a626b2e 	bpl	189b1a0 <__bss_end__+0x1888f08>
 4e4:	1131023f 	teqne	r1, pc, lsr r2
 4e8:	7508494b 	strvc	r4, [r8, #-2379]	; 0x94b
 4ec:	00572181 	subseq	r2, r7, r1, lsl #3
 4f0:	03020402 	movweq	r0, #9218	; 0x2402
 4f4:	002001f2 	strdeq	r0, [r0], -r2	; <UNPREDICTABLE>
 4f8:	03020402 	movweq	r0, #9218	; 0x2402
 4fc:	0349ac70 	movteq	sl, #40048	; 0x9c70
 500:	4a087dcd 	bmi	21fc3c <__bss_end__+0x20d9a4>
 504:	3d1f2157 	ldfccs	f2, [pc, #-348]	; 3b0 <shift+0x3b0>
 508:	c802df03 	stmdagt	r2, {r0, r1, r8, r9, sl, fp, ip, lr, pc}
 50c:	401c3238 	andsmi	r3, ip, r8, lsr r2
 510:	207e9703 	rsbscs	r9, lr, r3, lsl #14
 514:	01e30277 	mvneq	r0, r7, ror r2
 518:	3c0a030f 	stccc	3, cr0, [sl], {15}
 51c:	034a7303 	movteq	r7, #41731	; 0xa303
 520:	7303200d 	movwvc	r2, #12301	; 0x300d
 524:	200d032e 	andcs	r0, sp, lr, lsr #6
 528:	032e7303 	teqeq	lr, #201326592	; 0xc000000
 52c:	572e7f8d 	strpl	r7, [lr, -sp, lsl #31]!
 530:	033d1f21 	teqeq	sp, #33, 30	; 0x84
 534:	03c802e8 	biceq	r0, r8, #232, 4	; 0x8000000e
 538:	0e032072 	mcreq	0, 0, r2, cr3, cr2, {3}
 53c:	58720320 	ldmdapl	r2!, {r5, r8, r9}^
 540:	03200e03 	teqeq	r0, #3, 28	; 0x30
 544:	13032e72 	movwne	r2, #15986	; 0x3e72
 548:	29244b2e 	stmdbcs	r4!, {r1, r2, r3, r5, r8, r9, fp, lr}
 54c:	01040200 	mrseq	r0, R12_usr
 550:	0402004d 	streq	r0, [r2], #-77	; 0x4d
 554:	02004b02 	andeq	r4, r0, #2048	; 0x800
 558:	001f0204 	andseq	r0, pc, r4, lsl #4
 55c:	21020402 	tstcs	r2, r2, lsl #8
 560:	21114402 	tstcs	r1, r2, lsl #8
 564:	221f2165 	andscs	r2, pc, #1073741849	; 0x40000019
 568:	03c42462 	biceq	r2, r4, #1644167168	; 0x62000000
 56c:	80032e11 	andhi	r2, r3, r1, lsl lr
 570:	80034a7d 	andhi	r4, r3, sp, ror sl
 574:	81032e03 	tsthi	r3, r3, lsl #28
 578:	2f492e7d 	svccs	0x00492e7d
 57c:	9002ff03 	andls	pc, r2, r3, lsl #30
 580:	810332b6 			; <UNDEFINED> instruction: 0x810332b6
 584:	2f492e7d 	svccs	0x00492e7d
 588:	90038803 	andls	r8, r3, r3, lsl #16
 58c:	03587203 	cmpeq	r8, #805306368	; 0x30000000
 590:	7203200e 	andvc	r2, r3, #14
 594:	2015032e 	andscs	r0, r5, lr, lsr #6
 598:	23472363 	movtcs	r2, #29539	; 0x7363
 59c:	09031f2f 	stmdbeq	r3, {r0, r1, r2, r3, r5, r8, r9, sl, fp, ip}
 5a0:	0402004a 	streq	r0, [r2], #-74	; 0x4a
 5a4:	02003701 	andeq	r3, r0, #262144	; 0x40000
 5a8:	00c90204 	sbceq	r0, r9, r4, lsl #4
 5ac:	1f020402 	svcne	0x00020402
 5b0:	02040200 	andeq	r0, r4, #0, 4
 5b4:	04020075 	streq	r0, [r2], #-117	; 0x75
 5b8:	02006502 	andeq	r6, r0, #8388608	; 0x800000
 5bc:	00210204 	eoreq	r0, r1, r4, lsl #4
 5c0:	59020402 	stmdbpl	r2, {r1, sl}
 5c4:	02040200 	andeq	r0, r4, #0, 4
 5c8:	0402002d 	streq	r0, [r2], #-45	; 0x2d
 5cc:	02005902 	andeq	r5, r0, #32768	; 0x8000
 5d0:	00650204 	rsbeq	r0, r5, r4, lsl #4
 5d4:	21020402 	tstcs	r2, r2, lsl #8
 5d8:	02040200 	andeq	r0, r4, #0, 4
 5dc:	040200d5 	streq	r0, [r2], #-213	; 0xd5
 5e0:	02006702 	andeq	r6, r0, #524288	; 0x80000
 5e4:	002d0204 	eoreq	r0, sp, r4, lsl #4
 5e8:	75020402 	strvc	r0, [r2, #-1026]	; 0x402
 5ec:	02040200 	andeq	r0, r4, #0, 4
 5f0:	0402001f 	streq	r0, [r2], #-31
 5f4:	02002102 	andeq	r2, r0, #-2147483648	; 0x80000000
 5f8:	00490204 	subeq	r0, r9, r4, lsl #4
 5fc:	2f020402 	svccs	0x00020402
 600:	02040200 	andeq	r0, r4, #0, 4
 604:	0402001f 	streq	r0, [r2], #-31
 608:	02002f02 	andeq	r2, r0, #2, 30
 60c:	002d0204 	eoreq	r0, sp, r4, lsl #4
 610:	59020402 	stmdbpl	r2, {r1, sl}
 614:	02040200 	andeq	r0, r4, #0, 4
 618:	0402001f 	streq	r0, [r2], #-31
 61c:	02002102 	andeq	r2, r0, #-2147483648	; 0x80000000
 620:	00490204 	subeq	r0, r9, r4, lsl #4
 624:	2f020402 	svccs	0x00020402
 628:	02040200 	andeq	r0, r4, #0, 4
 62c:	0402001f 	streq	r0, [r2], #-31
 630:	02002f02 	andeq	r2, r0, #2, 30
 634:	002d0204 	eoreq	r0, sp, r4, lsl #4
 638:	59020402 	stmdbpl	r2, {r1, sl}
 63c:	02040200 	andeq	r0, r4, #0, 4
 640:	0402001f 	streq	r0, [r2], #-31
 644:	02002102 	andeq	r2, r0, #-2147483648	; 0x80000000
 648:	00490204 	subeq	r0, r9, r4, lsl #4
 64c:	2f020402 	svccs	0x00020402
 650:	02040200 	andeq	r0, r4, #0, 4
 654:	0402001f 	streq	r0, [r2], #-31
 658:	02002f02 	andeq	r2, r0, #2, 30
 65c:	002d0204 	eoreq	r0, sp, r4, lsl #4
 660:	59020402 	stmdbpl	r2, {r1, sl}
 664:	02040200 	andeq	r0, r4, #0, 4
 668:	0402001f 	streq	r0, [r2], #-31
 66c:	02002102 	andeq	r2, r0, #-2147483648	; 0x80000000
 670:	00490204 	subeq	r0, r9, r4, lsl #4
 674:	2f020402 	svccs	0x00020402
 678:	02040200 	andeq	r0, r4, #0, 4
 67c:	0402001f 	streq	r0, [r2], #-31
 680:	02002f02 	andeq	r2, r0, #2, 30
 684:	002d0204 	eoreq	r0, sp, r4, lsl #4
 688:	59020402 	stmdbpl	r2, {r1, sl}
 68c:	02040200 	andeq	r0, r4, #0, 4
 690:	0402001f 	streq	r0, [r2], #-31
 694:	02002102 	andeq	r2, r0, #-2147483648	; 0x80000000
 698:	00490204 	subeq	r0, r9, r4, lsl #4
 69c:	2f020402 	svccs	0x00020402
 6a0:	02040200 	andeq	r0, r4, #0, 4
 6a4:	0402002d 	streq	r0, [r2], #-45	; 0x2d
 6a8:	02002f02 	andeq	r2, r0, #2, 30
 6ac:	003b0204 	eorseq	r0, fp, r4, lsl #4
 6b0:	59020402 	stmdbpl	r2, {r1, sl}
 6b4:	02040200 	andeq	r0, r4, #0, 4
 6b8:	0402002d 	streq	r0, [r2], #-45	; 0x2d
 6bc:	02002102 	andeq	r2, r0, #-2147483648	; 0x80000000
 6c0:	002d0204 	eoreq	r0, sp, r4, lsl #4
 6c4:	21020402 	tstcs	r2, r2, lsl #8
 6c8:	2d2175aa 	cfstr32cs	mvfx7, [r1, #-680]!	; 0xfffffd58
 6cc:	3a3d1f21 	bcc	f48358 <__bss_end__+0xf360c0>
 6d0:	251e2121 	ldrcs	r2, [lr, #-289]	; 0x121
 6d4:	03ad1d30 			; <UNDEFINED> instruction: 0x03ad1d30
 6d8:	03354a78 	teqeq	r5, #120, 20	; 0x78000
 6dc:	32352e79 	eorscc	r2, r5, #1936	; 0x790
 6e0:	032a241c 	teqeq	sl, #28, 8	; 0x1c000000
 6e4:	0e034a79 	mcreq	10, 0, r4, cr3, cr9, {3}
 6e8:	3e3d754a 	cdpcc	5, 3, cr7, cr13, cr10, {2}
 6ec:	bf03302c 	svclt	0x0003302c
 6f0:	c4034a7e 	strgt	r4, [r3], #-2686	; 0xa7e
 6f4:	bc039001 	stclt	0, cr9, [r3], {1}
 6f8:	c503827e 	strgt	r8, [r3, #-638]	; 0x27e
 6fc:	87849001 	strhi	r9, [r4, r1]
 700:	7ed60340 	cdpvc	3, 13, cr0, cr6, cr0, {2}
 704:	4b1f2f82 	blmi	7cc514 <__bss_end__+0x7ba27c>
 708:	2001a103 	andcs	sl, r1, r3, lsl #2
 70c:	3d4b1e30 	stclcc	14, cr1, [fp, #-192]	; 0xffffff40
 710:	207eee03 	rsbscs	lr, lr, r3, lsl #28
 714:	30907a03 	addscc	r7, r0, r3, lsl #20
 718:	023d4b1e 	eorseq	r4, sp, #30720	; 0x7800
 71c:	01010001 	tsteq	r1, r1
 720:	38020500 	stmdacc	r2, {r8, sl}
 724:	03000087 	movweq	r0, #135	; 0x87
 728:	02130120 	andseq	r0, r3, #32, 2
 72c:	01010007 	tsteq	r1, r7

Disassembly of section .debug_frame:

00000000 <.debug_frame>:
   0:	0000000c 	andeq	r0, r0, ip
   4:	ffffffff 			; <UNDEFINED> instruction: 0xffffffff
   8:	7c020001 	stcvc	0, cr0, [r2], {1}
   c:	000d0c0e 	andeq	r0, sp, lr, lsl #24
  10:	00000018 	andeq	r0, r0, r8, lsl r0
  14:	00000000 	andeq	r0, r0, r0
  18:	000093e0 	andeq	r9, r0, r0, ror #7
  1c:	00000024 	andeq	r0, r0, r4, lsr #32
  20:	84080e43 	strhi	r0, [r8], #-3651	; 0xe43
  24:	4c018502 	cfstr32mi	mvfx8, [r1], {2}
  28:	000ec4c5 	andeq	ip, lr, r5, asr #9
  2c:	00000020 	andeq	r0, r0, r0, lsr #32
  30:	00000000 	andeq	r0, r0, r0
  34:	00008748 	andeq	r8, r0, r8, asr #14
  38:	0000003a 	andeq	r0, r0, sl, lsr r0
  3c:	84140e41 	ldrhi	r0, [r4], #-3649	; 0xe41
  40:	86048505 	strhi	r8, [r4], -r5, lsl #10
  44:	8e028703 	cdphi	7, 0, cr8, cr2, cr3, {0}
  48:	200e4301 	andcs	r4, lr, r1, lsl #6
  4c:	00140e58 	andseq	r0, r4, r8, asr lr
  50:	0000000c 	andeq	r0, r0, ip
  54:	00000000 	andeq	r0, r0, r0
  58:	00008738 	andeq	r8, r0, r8, lsr r7
  5c:	0000000e 	andeq	r0, r0, lr
  60:	0000001c 	andeq	r0, r0, ip, lsl r0
  64:	00000000 	andeq	r0, r0, r0
  68:	00009404 	andeq	r9, r0, r4, lsl #8
  6c:	0000002c 	andeq	r0, r0, ip, lsr #32
  70:	84080e43 	strhi	r0, [r8], #-3651	; 0xe43
  74:	42018e02 	andmi	r8, r1, #2, 28
  78:	0e50100e 	cdpeq	0, 5, cr1, cr0, cr14, {0}
  7c:	00000008 	andeq	r0, r0, r8
  80:	00000034 	andeq	r0, r0, r4, lsr r0
  84:	00000000 	andeq	r0, r0, r0
  88:	00009430 	andeq	r9, r0, r0, lsr r4
  8c:	000000f8 	strdeq	r0, [r0], -r8
  90:	83200e42 	teqhi	r0, #1056	; 0x420
  94:	85078408 	strhi	r8, [r7, #-1032]	; 0x408
  98:	87058606 	strhi	r8, [r5, -r6, lsl #12]
  9c:	89038804 	stmdbhi	r3, {r2, fp, pc}
  a0:	43018e02 	movwmi	r8, #7682	; 0x1e02
  a4:	5005300e 	andpl	r3, r5, lr
  a8:	0a52050c 	beq	14814e0 <__bss_end__+0x146f248>
  ac:	060a5f02 	streq	r5, [sl], -r2, lsl #30
  b0:	0e500652 	mrceq	6, 2, r0, cr0, cr2, {2}
  b4:	000b4220 	andeq	r4, fp, r0, lsr #4
  b8:	00000038 	andeq	r0, r0, r8, lsr r0
  bc:	00000000 	andeq	r0, r0, r0
  c0:	00009528 	andeq	r9, r0, r8, lsr #10
  c4:	00000100 	andeq	r0, r0, r0, lsl #2
  c8:	83200e42 	teqhi	r0, #1056	; 0x420
  cc:	85078408 	strhi	r8, [r7, #-1032]	; 0x408
  d0:	87058606 	strhi	r8, [r5, -r6, lsl #12]
  d4:	89038804 	stmdbhi	r3, {r2, fp, pc}
  d8:	43018e02 	movwmi	r8, #7682	; 0x1e02
  dc:	5005380e 	andpl	r3, r5, lr, lsl #16
  e0:	0c52050e 	cfldr64eq	mvdx0, [r2], {14}
  e4:	020a5405 	andeq	r5, sl, #83886080	; 0x5000000
  e8:	54060a73 	strpl	r0, [r6], #-2675	; 0xa73
  ec:	50065206 	andpl	r5, r6, r6, lsl #4
  f0:	0b42200e 	bleq	1088130 <__bss_end__+0x1075e98>
  f4:	00000040 	andeq	r0, r0, r0, asr #32
  f8:	00000000 	andeq	r0, r0, r0
  fc:	00009628 	andeq	r9, r0, r8, lsr #12
 100:	000001f0 	strdeq	r0, [r0], -r0	; <UNPREDICTABLE>
 104:	84240e42 	strthi	r0, [r4], #-3650	; 0xe42
 108:	86088509 	strhi	r8, [r8], -r9, lsl #10
 10c:	88068707 	stmdahi	r6, {r0, r1, r2, r8, r9, sl, pc}
 110:	8a048905 	bhi	12252c <__bss_end__+0x110294>
 114:	8e028b03 	vmlahi.f64	d8, d2, d3
 118:	3c0e4301 	stccc	3, cr4, [lr], {1}
 11c:	050f5005 	streq	r5, [pc, #-5]	; 11f <shift+0x11f>
 120:	54050d52 	strpl	r0, [r5], #-3410	; 0xd52
 124:	480e410b 	stmdami	lr, {r0, r1, r3, r8, lr}
 128:	0e0ae502 	cfsh32eq	mvfx14, mvfx10, #2
 12c:	5406423c 	strpl	r4, [r6], #-572	; 0x23c
 130:	50065206 	andpl	r5, r6, r6, lsl #4
 134:	0b42240e 	bleq	1089174 <__bss_end__+0x1076edc>
 138:	00000028 	andeq	r0, r0, r8, lsr #32
 13c:	00000000 	andeq	r0, r0, r0
 140:	00009818 	andeq	r9, r0, r8, lsl r8
 144:	000000f2 	strdeq	r0, [r0], -r2
 148:	84180e45 	ldrhi	r0, [r8], #-3653	; 0xe45
 14c:	86058506 	strhi	r8, [r5], -r6, lsl #10
 150:	88038704 	stmdahi	r3, {r2, r8, r9, sl, pc}
 154:	02018e02 	andeq	r8, r1, #2, 28
 158:	c4000e72 	strgt	r0, [r0], #-3698	; 0xe72
 15c:	c8c7c6c5 	stmiagt	r7, {r0, r2, r6, r7, r9, sl, lr, pc}^
 160:	000000ce 	andeq	r0, r0, lr, asr #1
 164:	00000034 	andeq	r0, r0, r4, lsr r0
 168:	00000000 	andeq	r0, r0, r0
 16c:	0000990c 	andeq	r9, r0, ip, lsl #18
 170:	000001c0 	andeq	r0, r0, r0, asr #3
 174:	83280e42 	teqhi	r8, #1056	; 0x420
 178:	8509840a 	strhi	r8, [r9, #-1034]	; 0x40a
 17c:	87078608 	strhi	r8, [r7, -r8, lsl #12]
 180:	89058806 	stmdbhi	r5, {r1, r2, fp, pc}
 184:	8b038a04 	blhi	e299c <__bss_end__+0xd0704>
 188:	43018e02 	movwmi	r8, #7682	; 0x1e02
 18c:	5005300e 	andpl	r3, r5, lr
 190:	0ad5020c 	beq	ff5409c8 <__bss_end__+0xff52e730>
 194:	280e5006 	stmdacs	lr, {r1, r2, ip, lr}
 198:	00000b42 	andeq	r0, r0, r2, asr #22
 19c:	00000020 	andeq	r0, r0, r0, lsr #32
 1a0:	00000000 	andeq	r0, r0, r0
 1a4:	00009acc 	andeq	r9, r0, ip, asr #21
 1a8:	0000003c 	andeq	r0, r0, ip, lsr r0
 1ac:	84100e41 	ldrhi	r0, [r0], #-3649	; 0xe41
 1b0:	86038504 	strhi	r8, [r3], -r4, lsl #10
 1b4:	5b018e02 	blpl	639c4 <__bss_end__+0x5172c>
 1b8:	c4c5c6ce 	strbgt	ip, [r5], #1742	; 0x6ce
 1bc:	0000000e 	andeq	r0, r0, lr
 1c0:	0000002c 	andeq	r0, r0, ip, lsr #32
 1c4:	00000000 	andeq	r0, r0, r0
 1c8:	00009b08 	andeq	r9, r0, r8, lsl #22
 1cc:	00000090 	muleq	r0, r0, r0
 1d0:	84240e42 	strthi	r0, [r4], #-3650	; 0xe42
 1d4:	86088509 	strhi	r8, [r8], -r9, lsl #10
 1d8:	88068707 	stmdahi	r6, {r0, r1, r2, r8, r9, sl, pc}
 1dc:	8a048905 	bhi	1225f8 <__bss_end__+0x110360>
 1e0:	8e028b03 	vmlahi.f64	d8, d2, d3
 1e4:	400e4101 	andmi	r4, lr, r1, lsl #2
 1e8:	0e0a4102 	adfeqe	f4, f2, f2
 1ec:	000b4224 	andeq	r4, fp, r4, lsr #4
 1f0:	00000028 	andeq	r0, r0, r8, lsr #32
 1f4:	00000000 	andeq	r0, r0, r0
 1f8:	00009b98 	muleq	r0, r8, fp
 1fc:	000000be 	strheq	r0, [r0], -lr
 200:	84240e42 	strthi	r0, [r4], #-3650	; 0xe42
 204:	86088509 	strhi	r8, [r8], -r9, lsl #10
 208:	88068707 	stmdahi	r6, {r0, r1, r2, r8, r9, sl, pc}
 20c:	8a048905 	bhi	122628 <__bss_end__+0x110390>
 210:	8e028b03 	vmlahi.f64	d8, d2, d3
 214:	300e4301 	andcc	r4, lr, r1, lsl #6
 218:	240e5802 	strcs	r5, [lr], #-2050	; 0x802
 21c:	00000014 	andeq	r0, r0, r4, lsl r0
 220:	00000000 	andeq	r0, r0, r0
 224:	00009c58 	andeq	r9, r0, r8, asr ip
 228:	0000001a 	andeq	r0, r0, sl, lsl r0
 22c:	84080e43 	strhi	r0, [r8], #-3651	; 0xe43
 230:	00018e02 	andeq	r8, r1, r2, lsl #28
 234:	00000060 	andeq	r0, r0, r0, rrx
 238:	00000000 	andeq	r0, r0, r0
 23c:	00008784 	andeq	r8, r0, r4, lsl #15
 240:	00000b7c 	andeq	r0, r0, ip, ror fp
 244:	84240e42 	strthi	r0, [r4], #-3650	; 0xe42
 248:	86088509 	strhi	r8, [r8], -r9, lsl #10
 24c:	88068707 	stmdahi	r6, {r0, r1, r2, r8, r9, sl, pc}
 250:	8a048905 	bhi	12266c <__bss_end__+0x1103d4>
 254:	8e028b03 	vmlahi.f64	d8, d2, d3
 258:	640e4401 	strvs	r4, [lr], #-1025	; 0x401
 25c:	05195005 	ldreq	r5, [r9, #-5]
 260:	54051752 	strpl	r1, [r5], #-1874	; 0x752
 264:	13560515 	cmpne	r6, #88080384	; 0x5400000
 268:	05115805 	ldreq	r5, [r1, #-2053]	; 0x805
 26c:	5c050f5a 	stcpl	15, cr0, [r5], {90}	; 0x5a
 270:	0b5e050d 	bleq	17816ac <__bss_end__+0x176f414>
 274:	4be40e44 	blmi	ff903b8c <__bss_end__+0xff8f18f4>
 278:	4c800e43 	stcmi	14, cr0, [r0], {67}	; 0x43
 27c:	0a058603 	beq	161a90 <__bss_end__+0x14f7f8>
 280:	0642640e 	strbeq	r6, [r2], -lr, lsl #8
 284:	065c065e 			; <UNDEFINED> instruction: 0x065c065e
 288:	0658065a 			; <UNDEFINED> instruction: 0x0658065a
 28c:	06540656 			; <UNDEFINED> instruction: 0x06540656
 290:	0e500652 	mrceq	6, 2, r0, cr0, cr2, {2}
 294:	000b4224 	andeq	r4, fp, r4, lsr #4
 298:	0000000c 	andeq	r0, r0, ip
 29c:	ffffffff 			; <UNDEFINED> instruction: 0xffffffff
 2a0:	7c010001 	stcvc	0, cr0, [r1], {1}
 2a4:	000d0c0e 	andeq	r0, sp, lr, lsl #24
 2a8:	0000000c 	andeq	r0, r0, ip
 2ac:	00000298 	muleq	r0, r8, r2
 2b0:	00009c79 	andeq	r9, r0, r9, ror ip
 2b4:	0000025c 	andeq	r0, r0, ip, asr r2
 2b8:	0000000c 	andeq	r0, r0, ip
 2bc:	ffffffff 			; <UNDEFINED> instruction: 0xffffffff
 2c0:	7c020001 	stcvc	0, cr0, [r2], {1}
 2c4:	000d0c0e 	andeq	r0, sp, lr, lsl #24
 2c8:	00000020 	andeq	r0, r0, r0, lsr #32
 2cc:	000002b8 			; <UNDEFINED> instruction: 0x000002b8
 2d0:	00009efc 	strdeq	r9, [r0], -ip
 2d4:	00000040 	andeq	r0, r0, r0, asr #32
 2d8:	83200e42 	teqhi	r0, #1056	; 0x420
 2dc:	85078408 	strhi	r8, [r7, #-1032]	; 0x408
 2e0:	87058606 	strhi	r8, [r5, -r6, lsl #12]
 2e4:	89038804 	stmdbhi	r3, {r2, fp, pc}
 2e8:	00018e02 	andeq	r8, r1, r2, lsl #28
 2ec:	0000000c 	andeq	r0, r0, ip
 2f0:	000002b8 			; <UNDEFINED> instruction: 0x000002b8
 2f4:	00009f3c 	andeq	r9, r0, ip, lsr pc
 2f8:	00000002 	andeq	r0, r0, r2

Disassembly of section .debug_str:

00000000 <.debug_str>:
   0:	666f5f5f 	uqsaxvs	r5, pc, pc	; <UNPREDICTABLE>
   4:	00745f66 	rsbseq	r5, r4, r6, ror #30
   8:	6c616373 	stclvs	3, cr6, [r1], #-460	; 0xfffffe34
   c:	635f0065 	cmpvs	pc, #101	; 0x65
  10:	6e696168 	powvsez	f6, f1, #0.0
  14:	616d6d00 	cmnvs	sp, r0, lsl #26
  18:	61645f70 	smcvs	17904	; 0x45f0
  1c:	77006174 	smlsdxvc	r0, r4, r1, r6
  20:	75656b61 	strbvc	r6, [r5, #-2913]!	; 0xb61
  24:	61775f70 	cmnvs	r7, r0, ror pc
  28:	6d726574 	cfldr64vs	mvdx6, [r2, #-464]!	; 0xfffffe30
  2c:	006b7261 	rsbeq	r7, fp, r1, ror #4
  30:	6f68735f 	svcvs	0x0068735f
  34:	75627472 	strbvc	r7, [r2, #-1138]!	; 0x472
  38:	78650066 	stmdavc	r5!, {r1, r2, r5, r6}^
  3c:	73756c63 	cmnvc	r5, #25344	; 0x6300
  40:	00657669 	rsbeq	r7, r5, r9, ror #12
  44:	5f636361 	svcpl	0x00636361
  48:	6d746e69 	ldclvs	14, cr6, [r4, #-420]!	; 0xfffffe5c
  4c:	61007861 	tstvs	r0, r1, ror #16
  50:	635f6363 	cmpvs	pc, #-1946157055	; 0x8c000001
  54:	656c6379 	strbvs	r6, [ip, #-889]!	; 0x379
  58:	616d0073 	smcvs	53251	; 0xd003
  5c:	6d003163 	stfvss	f3, [r0, #-396]	; 0xfffffe74
  60:	00326361 	eorseq	r6, r2, r1, ror #6
  64:	6d6d6f63 	stclvs	15, cr6, [sp, #-396]!	; 0xfffffe74
  68:	63616d00 	cmnvs	r1, #0, 26
  6c:	6e690034 	mcrvs	0, 3, r0, cr9, cr4, {1}
  70:	50007469 	andpl	r7, r0, r9, ror #8
  74:	5f465245 	svcpl	0x00465245
  78:	4e554f43 	cdpmi	15, 5, cr4, cr5, cr3, {2}
  7c:	57485f54 	smlsldpl	r5, r8, r4, pc	; <UNPREDICTABLE>
  80:	4154535f 	cmpmi	r4, pc, asr r3
  84:	44454c4c 	strbmi	r4, [r5], #-3148	; 0xc4c
  88:	4359435f 	cmpmi	r9, #2080374785	; 0x7c000001
  8c:	5f53454c 	svcpl	0x0053454c
  90:	4b434142 	blmi	10d05a0 <__bss_end__+0x10be308>
  94:	00444e45 	subeq	r4, r4, r5, asr #28
  98:	5f4f495f 	svcpl	0x004f495f
  9c:	5f667562 	svcpl	0x00667562
  a0:	65736162 	ldrbvs	r6, [r3, #-354]!	; 0x162
  a4:	61657200 	cmnvs	r5, r0, lsl #4
  a8:	6f665f64 	svcvs	0x00665f64
  ac:	74616d72 	strbtvc	r6, [r1], #-3442	; 0xd72
  b0:	52455000 	subpl	r5, r5, #0
  b4:	4f435f46 	svcmi	0x00435f46
  b8:	5f544e55 	svcpl	0x00544e55
  bc:	435f5748 	cmpmi	pc, #72, 14	; 0x1200000
  c0:	45484341 	strbmi	r4, [r8, #-833]	; 0x341
  c4:	53494d5f 	movtpl	r4, #40287	; 0x9d5f
  c8:	00534553 	subseq	r4, r3, r3, asr r5
  cc:	676e6f6c 	strbvs	r6, [lr, -ip, ror #30]!
  d0:	6e6f6c20 	cdpvs	12, 6, cr6, cr15, cr0, {1}
  d4:	6e752067 	cdpvs	0, 7, cr2, cr5, cr7, {3}
  d8:	6e676973 	mcrvs	9, 3, r6, cr7, cr3, {3}
  dc:	69206465 	stmdbvs	r0!, {r0, r2, r5, r6, sl, sp, lr}
  e0:	5000746e 	andpl	r7, r0, lr, ror #8
  e4:	5f465245 	svcpl	0x00465245
  e8:	4e554f43 	cdpmi	15, 5, cr4, cr5, cr3, {2}
  ec:	57485f54 	smlsldpl	r5, r8, r4, pc	; <UNPREDICTABLE>
  f0:	58414d5f 	stmdapl	r1, {r0, r1, r2, r3, r4, r6, r8, sl, fp, lr}^
  f4:	52455000 	subpl	r5, r5, #0
  f8:	4f435f46 	svcmi	0x00435f46
  fc:	5f544e55 	svcpl	0x00544e55
 100:	425f5748 	subsmi	r5, pc, #72, 14	; 0x1200000
 104:	434e4152 	movtmi	r4, #57682	; 0xe152
 108:	4e495f48 	cdpmi	15, 4, cr5, cr9, cr8, {2}
 10c:	55525453 	ldrbpl	r5, [r2, #-1107]	; 0x453
 110:	4f495443 	svcmi	0x00495443
 114:	7300534e 	movwvc	r5, #846	; 0x34e
 118:	6c706d61 	ldclvs	13, cr6, [r0], #-388	; 0xfffffe7c
 11c:	00745f65 	rsbseq	r5, r4, r5, ror #30
 120:	726f6873 	rsbvc	r6, pc, #7536640	; 0x730000
 124:	6e692074 	mcrvs	0, 3, r2, cr9, cr4, {3}
 128:	656d0074 	strbvs	r0, [sp, #-116]!	; 0x74
 12c:	6e616964 	cdpvs	9, 6, cr6, cr1, cr4, {3}
 130:	6e6f6c00 	cdpvs	12, 6, cr6, cr15, cr0, {0}
 134:	6f6c2067 	svcvs	0x006c2067
 138:	6920676e 	stmdbvs	r0!, {r1, r2, r3, r5, r6, r8, r9, sl, sp, lr}
 13c:	5f00746e 	svcpl	0x0000746e
 140:	4552505f 	ldrbmi	r5, [r2, #-95]	; 0x5f
 144:	5f595454 	svcpl	0x00595454
 148:	434e5546 	movtmi	r5, #58694	; 0xe546
 14c:	4e4f4954 	mcrmi	9, 2, r4, cr15, cr4, {2}
 150:	73005f5f 	movwvc	r5, #3935	; 0xf5f
 154:	656c6163 	strbvs	r6, [ip, #-355]!	; 0x163
 158:	00676973 	rsbeq	r6, r7, r3, ror r9
 15c:	6c69665f 	stclvs	6, cr6, [r9], #-380	; 0xfffffe84
 160:	006f6e65 	rsbeq	r6, pc, r5, ror #28
 164:	656b6177 	strbvs	r6, [fp, #-375]!	; 0x177
 168:	655f7075 	ldrbvs	r7, [pc, #-117]	; fb <shift+0xfb>
 16c:	746e6576 	strbtvc	r6, [lr], #-1398	; 0x576
 170:	495f0073 	ldmdbmi	pc, {r0, r1, r4, r5, r6}^	; <UNPREDICTABLE>
 174:	65725f4f 	ldrbvs	r5, [r2, #-3919]!	; 0xf4f
 178:	655f6461 	ldrbvs	r6, [pc, #-1121]	; fffffd1f <__bss_end__+0xfffeda87>
 17c:	4700646e 	strmi	r6, [r0, -lr, ror #8]
 180:	4320554e 	teqmi	r0, #327155712	; 0x13800000
 184:	382e3420 	stmdacc	lr!, {r5, sl, ip, sp}
 188:	3220332e 	eorcc	r3, r0, #-1207959552	; 0xb8000000
 18c:	30343130 	eorscc	r3, r4, r0, lsr r1
 190:	20313034 	eorscs	r3, r1, r4, lsr r0
 194:	65727028 	ldrbvs	r7, [r2, #-40]!	; 0x28
 198:	656c6572 	strbvs	r6, [ip, #-1394]!	; 0x572
 19c:	29657361 	stmdbcs	r5!, {r0, r5, r6, r8, r9, ip, sp, lr}^
 1a0:	616d2d20 	cmnvs	sp, r0, lsr #26
 1a4:	3d686372 	stclcc	3, cr6, [r8, #-456]!	; 0xfffffe38
 1a8:	766d7261 	strbtvc	r7, [sp], -r1, ror #4
 1ac:	20612d37 	rsbcs	r2, r1, r7, lsr sp
 1b0:	75746d2d 	ldrbvc	r6, [r4, #-3373]!	; 0xd2d
 1b4:	633d656e 	teqvs	sp, #461373440	; 0x1b800000
 1b8:	6574726f 	ldrbvs	r7, [r4, #-623]!	; 0x26f
 1bc:	39612d78 	stmdbcc	r1!, {r3, r4, r5, r6, r8, sl, fp, sp}^
 1c0:	666d2d20 	strbtvs	r2, [sp], -r0, lsr #26
 1c4:	74616f6c 	strbtvc	r6, [r1], #-3948	; 0xf6c
 1c8:	6962612d 	stmdbvs	r2!, {r0, r2, r3, r5, r8, sp, lr}^
 1cc:	7261683d 	rsbvc	r6, r1, #3997696	; 0x3d0000
 1d0:	6d2d2064 	stcvs	0, cr2, [sp, #-400]!	; 0xfffffe70
 1d4:	3d757066 	ldclcc	0, cr7, [r5, #-408]!	; 0xfffffe68
 1d8:	76706676 			; <UNDEFINED> instruction: 0x76706676
 1dc:	31642d33 	cmncc	r4, r3, lsr sp
 1e0:	6d2d2036 	stcvs	0, cr2, [sp, #-216]!	; 0xffffff28
 1e4:	6d756874 	ldclvs	8, cr6, [r5, #-464]!	; 0xfffffe30
 1e8:	6d2d2062 	stcvs	0, cr2, [sp, #-392]!	; 0xfffffe78
 1ec:	2d736c74 	ldclcs	12, cr6, [r3, #-464]!	; 0xfffffe30
 1f0:	6c616964 	stclvs	9, cr6, [r1], #-400	; 0xfffffe70
 1f4:	3d746365 	ldclcc	3, cr6, [r4, #-404]!	; 0xfffffe6c
 1f8:	20756e67 	rsbscs	r6, r5, r7, ror #28
 1fc:	2d20672d 	stccs	7, cr6, [r0, #-180]!	; 0xffffff4c
 200:	4f2d2067 	svcmi	0x002d2067
 204:	78650033 	stmdavc	r5!, {r0, r1, r4, r5}^
 208:	64756c63 	ldrbtvs	r6, [r5], #-3171	; 0xc63
 20c:	73755f65 	cmnvc	r5, #404	; 0x194
 210:	66007265 	strvs	r7, [r0], -r5, ror #4
 214:	6d646e69 	stclvs	14, cr6, [r4, #-420]!	; 0xfffffe5c
 218:	65007861 	strvs	r7, [r0, #-2145]	; 0x861
 21c:	726f7272 	rsbvc	r7, pc, #536870919	; 0x20000007
 220:	6576656c 	ldrbvs	r6, [r6, #-1388]!	; 0x56c
 224:	63615f6c 	cmnvs	r1, #108, 30	; 0x1b0
 228:	665f0063 	ldrbvs	r0, [pc], -r3, rrx
 22c:	7367616c 	cmnvc	r7, #108, 2
 230:	52455000 	subpl	r5, r5, #0
 234:	59545f46 	ldmdbpl	r4, {r1, r2, r6, r8, r9, sl, fp, ip, lr}^
 238:	485f4550 	ldmdami	pc, {r4, r6, r8, sl, lr}^	; <UNPREDICTABLE>
 23c:	41435f57 	cmpmi	r3, r7, asr pc
 240:	00454843 	subeq	r4, r5, r3, asr #16
 244:	73735f5f 	cmnvc	r3, #380	; 0x17c
 248:	5f657a69 	svcpl	0x00657a69
 24c:	5f5f0074 	svcpl	0x005f0074
 250:	6c697562 	cfstr64vs	mvdx7, [r9], #-392	; 0xfffffe78
 254:	5f6e6974 	svcpl	0x006e6974
 258:	73747570 	cmnvc	r4, #112, 10	; 0x1c000000
 25c:	75635f00 	strbvc	r5, [r3, #-3840]!	; 0xf00
 260:	6f635f72 	svcvs	0x00635f72
 264:	6e6d756c 	cdpvs	5, 6, cr7, cr13, cr12, {3}
 268:	616d6d00 	cmnvs	sp, r0, lsl #26
 26c:	5f5f0070 	svcpl	0x005f0070
 270:	64617571 	strbtvs	r7, [r1], #-1393	; 0x571
 274:	6400745f 	strvs	r7, [r0], #-1119	; 0x45f
 278:	6c62756f 	cfstr64vs	mvdx7, [r2], #-444	; 0xfffffe44
 27c:	65740065 	ldrbvs	r0, [r4, #-101]!	; 0x65
 280:	616c706d 	cmnvs	ip, sp, rrx
 284:	61736574 	cmnvs	r3, r4, ror r5
 288:	656c706d 	strbvs	r7, [ip, #-109]!	; 0x6d
 28c:	45500073 	ldrbmi	r0, [r0, #-115]	; 0x73
 290:	545f4652 	ldrbpl	r4, [pc], #-1618	; 298 <shift+0x298>
 294:	5f455059 	svcpl	0x00455059
 298:	43415254 	movtmi	r5, #4692	; 0x1254
 29c:	494f5045 	stmdbmi	pc, {r0, r2, r6, ip, lr}^	; <UNPREDICTABLE>
 2a0:	6300544e 	movwvs	r5, #1102	; 0x44e
 2a4:	69666e6f 	stmdbvs	r6!, {r0, r1, r2, r3, r5, r6, r9, sl, fp, sp, lr}^
 2a8:	63003167 	movwvs	r3, #359	; 0x167
 2ac:	69666e6f 	stmdbvs	r6!, {r0, r1, r2, r3, r5, r6, r9, sl, fp, sp, lr}^
 2b0:	71003267 	tstvc	r0, r7, ror #4
 2b4:	74726f73 	ldrbtvc	r6, [r2], #-3955	; 0xf73
 2b8:	52455000 	subpl	r5, r5, #0
 2bc:	4f435f46 	svcmi	0x00435f46
 2c0:	5f544e55 	svcpl	0x00544e55
 2c4:	495f5748 	ldmdbmi	pc, {r3, r6, r8, r9, sl, ip, lr}^	; <UNPREDICTABLE>
 2c8:	5254534e 	subspl	r5, r4, #939524097	; 0x38000001
 2cc:	49544355 	ldmdbmi	r4, {r0, r2, r4, r6, r8, r9, lr}^
 2d0:	00534e4f 	subseq	r4, r3, pc, asr #28
 2d4:	74726976 	ldrbtvc	r6, [r2], #-2422	; 0x976
 2d8:	5f6c6175 	svcpl	0x006c6175
 2dc:	65736162 	ldrbvs	r6, [r3, #-354]!	; 0x162
 2e0:	705f5f00 	subsvc	r5, pc, r0, lsl #30
 2e4:	00356461 	eorseq	r6, r5, r1, ror #8
 2e8:	46524550 			; <UNDEFINED> instruction: 0x46524550
 2ec:	5059545f 	subspl	r5, r9, pc, asr r4
 2f0:	414d5f45 	cmpmi	sp, r5, asr #30
 2f4:	495f0058 	ldmdbmi	pc, {r3, r4, r6}^	; <UNPREDICTABLE>
 2f8:	616d5f4f 	cmnvs	sp, pc, asr #30
 2fc:	72656b72 	rsbvc	r6, r5, #116736	; 0x1c800
 300:	64747300 	ldrbtvs	r7, [r4], #-768	; 0x300
 304:	5f006e69 	svcpl	0x00006e69
 308:	7365725f 	cmnvc	r5, #-268435451	; 0xf0000005
 30c:	65767265 	ldrbvs	r7, [r6, #-613]!	; 0x265
 310:	00315f64 	eorseq	r5, r1, r4, ror #30
 314:	6c5f7062 	mrrcvs	0, 6, r7, pc, cr2	; <UNPREDICTABLE>
 318:	66006e65 	strvs	r6, [r0], -r5, ror #28
 31c:	6e697270 	mcrvs	2, 3, r7, cr9, cr0, {3}
 320:	64006674 	strvs	r6, [r0], #-1652	; 0x674
 324:	62617369 	rsbvs	r7, r1, #-1543503871	; 0xa4000001
 328:	0064656c 	rsbeq	r6, r4, ip, ror #10
 32c:	65686e69 	strbvs	r6, [r8, #-3689]!	; 0xe69
 330:	00746972 	rsbseq	r6, r4, r2, ror r9
 334:	706d6173 	rsbvc	r6, sp, r3, ror r1
 338:	745f656c 	ldrbvc	r6, [pc], #-1388	; 340 <shift+0x340>
 33c:	00657079 	rsbeq	r7, r5, r9, ror r0
 340:	5f666572 	svcpl	0x00666572
 344:	6c637963 	stclvs	9, cr7, [r3], #-396	; 0xfffffe74
 348:	5f007365 	svcpl	0x00007365
 34c:	3233755f 	eorscc	r7, r3, #398458880	; 0x17c00000
 350:	4f495f00 	svcmi	0x00495f00
 354:	6972775f 	ldmdbvs	r2!, {r0, r1, r2, r3, r4, r6, r8, r9, sl, ip, sp, lr}^
 358:	705f6574 	subsvc	r6, pc, r4, ror r5	; <UNPREDICTABLE>
 35c:	6d007274 	sfmvs	f7, 4, [r0, #-464]	; 0xfffffe30
 360:	616d6e75 	smcvs	55013	; 0xd6e5
 364:	616e0070 	smcvs	57344	; 0xe000
 368:	5000656d 	andpl	r6, r0, sp, ror #10
 36c:	5f465245 	svcpl	0x00465245
 370:	45505954 	ldrbmi	r5, [r0, #-2388]	; 0x954
 374:	5241485f 	subpl	r4, r1, #6225920	; 0x5f0000
 378:	52415744 	subpl	r5, r1, #68, 14	; 0x1100000
 37c:	78650045 	stmdavc	r5!, {r0, r2, r6}^
 380:	64756c63 	ldrbtvs	r6, [r5], #-3171	; 0xc63
 384:	76685f65 	strbtvc	r5, [r8], -r5, ror #30
 388:	62735f00 	rsbsvs	r5, r3, #0, 30
 38c:	73006675 	movwvc	r6, #1653	; 0x675
 390:	00657a69 	rsbeq	r7, r5, r9, ror #20
 394:	726f6873 	rsbvc	r6, pc, #7536640	; 0x730000
 398:	6e752074 	mrcvs	0, 3, r2, cr5, cr4, {3}
 39c:	6e676973 	mcrvs	9, 3, r6, cr7, cr3, {3}
 3a0:	69206465 	stmdbvs	r0!, {r0, r2, r5, r6, sl, sp, lr}
 3a4:	5000746e 	andpl	r7, r0, lr, ror #8
 3a8:	5f465245 	svcpl	0x00465245
 3ac:	45505954 	ldrbmi	r5, [r0, #-2388]	; 0x954
 3b0:	5741525f 	smlsldpl	r5, r1, pc, r2	; <UNPREDICTABLE>
 3b4:	72657000 	rsbvc	r7, r5, #0
 3b8:	79745f66 	ldmdbvc	r4!, {r1, r2, r5, r6, r8, r9, sl, fp, ip, lr}^
 3bc:	695f6570 	ldmdbvs	pc, {r4, r5, r6, r8, sl, sp, lr}^	; <UNPREDICTABLE>
 3c0:	495f0064 	ldmdbmi	pc, {r2, r5, r6}^	; <UNPREDICTABLE>
 3c4:	61735f4f 	cmnvs	r3, pc, asr #30
 3c8:	625f6576 	subsvs	r6, pc, #494927872	; 0x1d800000
 3cc:	00657361 	rsbeq	r7, r5, r1, ror #6
 3d0:	47524154 			; <UNDEFINED> instruction: 0x47524154
 3d4:	69005445 	stmdbvs	r0, {r0, r2, r6, sl, ip, lr}
 3d8:	7865646e 	stmdavc	r5!, {r1, r2, r3, r5, r6, sl, sp, lr}^
 3dc:	6600745f 			; <UNDEFINED> instruction: 0x6600745f
 3e0:	726f6f6c 	rsbvc	r6, pc, #108, 30	; 0x1b0
 3e4:	63616d00 	cmnvs	r1, #0, 26
 3e8:	6c5f0033 	mrrcvs	0, 3, r0, pc, cr3	; <UNPREDICTABLE>
 3ec:	006b636f 	rsbeq	r6, fp, pc, ror #6
 3f0:	745f7062 	ldrbvc	r7, [pc], #-98	; 3f8 <shift+0x3f8>
 3f4:	00657079 	rsbeq	r7, r5, r9, ror r0
 3f8:	616c665f 	cmnvs	ip, pc, asr r6
 3fc:	00327367 	eorseq	r7, r2, r7, ror #6
 400:	646f6d5f 	strbtvs	r6, [pc], #-3423	; 408 <shift+0x408>
 404:	45500065 	ldrbmi	r0, [r0, #-101]	; 0x65
 408:	435f4652 	cmpmi	pc, #85983232	; 0x5200000
 40c:	544e554f 	strbpl	r5, [lr], #-1359	; 0x54f
 410:	5f57485f 	svcpl	0x0057485f
 414:	5f555043 	svcpl	0x00555043
 418:	4c435943 	mcrrmi	9, 4, r5, r3, cr3
 41c:	73005345 	movwvc	r5, #837	; 0x345
 420:	756f6474 	strbvc	r6, [pc, #-1140]!	; ffffffb4 <__bss_end__+0xfffedd1c>
 424:	69730074 	ldmdbvs	r3!, {r2, r4, r5, r6}^
 428:	7974657a 	ldmdbvc	r4!, {r1, r3, r4, r5, r6, r8, sl, sp, lr}^
 42c:	65006570 	strvs	r6, [r0, #-1392]	; 0x570
 430:	756c6378 	strbvc	r6, [ip, #-888]!	; 0x378
 434:	6b5f6564 	blvs	17d99cc <__bss_end__+0x17c7734>
 438:	656e7265 	strbvs	r7, [lr, #-613]!	; 0x265
 43c:	6f63006c 	svcvs	0x0063006c
 440:	7261706d 	rsbvc	r7, r1, #109	; 0x6d
 444:	6e755f65 	cdpvs	15, 7, cr5, cr5, cr5, {3}
 448:	6e676973 	mcrvs	9, 3, r6, cr7, cr3, {3}
 44c:	5f006465 	svcpl	0x00006465
 450:	725f4f49 	subsvc	r4, pc, #292	; 0x124
 454:	5f646165 	svcpl	0x00646165
 458:	00727470 	rsbseq	r7, r2, r0, ror r4
 45c:	6d5c3a43 	vldrvs	s7, [ip, #-268]	; 0xfffffef4
 460:	36737973 			; <UNDEFINED> instruction: 0x36737973
 464:	6f685c34 	svcvs	0x00685c34
 468:	765c656d 	ldrbvc	r6, [ip], -sp, ror #10
 46c:	72756469 	rsbsvc	r6, r5, #1761607680	; 0x69000000
 470:	616b616b 	cmnvs	fp, fp, ror #2
 474:	746f5c72 	strbtvc	r5, [pc], #-3186	; 47c <shift+0x47c>
 478:	5c726568 	cfldr64pl	mvdx6, [r2], #-416	; 0xfffffe60
 47c:	6c616863 	stclvs	8, cr6, [r1], #-396	; 0xfffffe74
 480:	676e656c 	strbvs	r6, [lr, -ip, ror #10]!
 484:	63652d65 	cmnvs	r5, #6464	; 0x1940
 488:	33353465 	teqcc	r5, #1694498816	; 0x65000000
 48c:	31662d30 	cmncc	r6, r0, lsr sp
 490:	69762d37 	ldmdbvs	r6!, {r0, r1, r2, r4, r5, r8, sl, fp, sp}^
 494:	76727564 	ldrbtvc	r7, [r2], -r4, ror #10
 498:	61625c74 	smcvs	9668	; 0x25c4
 49c:	696c6573 	stmdbvs	ip!, {r0, r1, r4, r5, r6, r8, sl, sp, lr}^
 4a0:	735c656e 	cmpvc	ip, #461373440	; 0x1b800000
 4a4:	7774666f 	ldrbvc	r6, [r4, -pc, ror #12]!
 4a8:	00657261 	rsbeq	r7, r5, r1, ror #4
 4ac:	46524550 			; <UNDEFINED> instruction: 0x46524550
 4b0:	5059545f 	subspl	r5, r9, pc, asr r4
 4b4:	4f535f45 	svcmi	0x00535f45
 4b8:	41575446 	cmpmi	r7, r6, asr #8
 4bc:	73004552 	movwvc	r4, #1362	; 0x552
 4c0:	6c706d61 	ldclvs	13, cr6, [r0], #-388	; 0xfffffe7c
 4c4:	65705f65 	ldrbvs	r5, [r0, #-3941]!	; 0xf65
 4c8:	646f6972 	strbtvs	r6, [pc], #-2418	; 4d0 <shift+0x4d0>
 4cc:	4f495f00 	svcmi	0x00495f00
 4d0:	636f6c5f 	cmnvs	pc, #24320	; 0x5f00
 4d4:	00745f6b 	rsbseq	r5, r4, fp, ror #30
 4d8:	706d6173 	rsbvc	r6, sp, r3, ror r1
 4dc:	6173656c 	cmnvs	r3, ip, ror #10
 4e0:	5f006576 	svcpl	0x00006576
 4e4:	465f4f49 	ldrbmi	r4, [pc], -r9, asr #30
 4e8:	00454c49 	subeq	r4, r5, r9, asr #24
 4ec:	625f7768 	subsvs	r7, pc, #104, 14	; 0x1a00000
 4f0:	636b6c75 	cmnvs	fp, #29952	; 0x7500
 4f4:	6572726f 	ldrbvs	r7, [r2, #-623]!	; 0x26f
 4f8:	6574616c 	ldrbvs	r6, [r4, #-364]!	; 0x16c
 4fc:	69687400 	stmdbvs	r8!, {sl, ip, sp, lr}^
 500:	66007473 			; <UNDEFINED> instruction: 0x66007473
 504:	74616f6c 	strbtvc	r6, [r1], #-3948	; 0xf6c
 508:	6e656700 	cdpvs	7, 6, cr6, cr5, cr0, {0}
 50c:	73696f6e 	cmnvc	r9, #440	; 0x1b8
 510:	6f660065 	svcvs	0x00660065
 514:	006e6570 	rsbeq	r6, lr, r0, ror r5
 518:	736f705f 	cmnvc	pc, #95	; 0x5f
 51c:	6c6f5f00 	stclvs	15, cr5, [pc], #-0	; 524 <shift+0x524>
 520:	666f5f64 	strbtvs	r5, [pc], -r4, ror #30
 524:	74657366 	strbtvc	r7, [r5], #-870	; 0x366
 528:	52455000 	subpl	r5, r5, #0
 52c:	4f435f46 	svcmi	0x00435f46
 530:	5f544e55 	svcpl	0x00544e55
 534:	425f5748 	subsmi	r5, pc, #72, 14	; 0x1200000
 538:	434e4152 	movtmi	r4, #57682	; 0xe152
 53c:	494d5f48 	stmdbmi	sp, {r3, r6, r8, r9, sl, fp, ip, lr}^
 540:	53455353 	movtpl	r5, #21331	; 0x5353
 544:	616d5f00 	cmnvs	sp, r0, lsl #30
 548:	72656b72 	rsbvc	r6, r5, #116736	; 0x1c800
 54c:	5f5f0073 	svcpl	0x005f0073
 550:	65737361 	ldrbvs	r7, [r3, #-865]!	; 0x361
 554:	665f7472 			; <UNDEFINED> instruction: 0x665f7472
 558:	006c6961 	rsbeq	r6, ip, r1, ror #18
 55c:	706d6173 	rsbvc	r6, sp, r3, ror r1
 560:	695f656c 	ldmdbvs	pc, {r2, r3, r5, r6, r8, sl, sp, lr}^	; <UNPREDICTABLE>
 564:	6c615f64 	stclvs	15, cr5, [r1], #-400	; 0xfffffe70
 568:	7973006c 	ldmdbvc	r3!, {r2, r3, r5, r6}^
 56c:	6c616373 	stclvs	3, cr6, [r1], #-460	; 0xfffffe34
 570:	6177006c 	cmnvs	r7, ip, rrx
 574:	6f666576 	svcvs	0x00666576
 578:	00736d72 	rsbseq	r6, r3, r2, ror sp
 57c:	615f7062 	cmpvs	pc, r2, rrx
 580:	00726464 	rsbseq	r6, r2, r4, ror #8
 584:	69736e75 	ldmdbvs	r3!, {r0, r2, r4, r5, r6, r9, sl, fp, sp, lr}^
 588:	64656e67 	strbtvs	r6, [r5], #-3687	; 0xe67
 58c:	61686320 	cmnvs	r8, r0, lsr #6
 590:	45500072 	ldrbmi	r0, [r0, #-114]	; 0x72
 594:	435f4652 	cmpmi	pc, #85983232	; 0x5200000
 598:	544e554f 	strbpl	r5, [lr], #-1359	; 0x54f
 59c:	5f57485f 	svcpl	0x0057485f
 5a0:	48434143 	stmdami	r3, {r0, r1, r6, r8, lr}^
 5a4:	45525f45 	ldrbmi	r5, [r2, #-3909]	; 0xf45
 5a8:	45524546 	ldrbmi	r4, [r2, #-1350]	; 0x546
 5ac:	5345434e 	movtpl	r4, #21326	; 0x534e
 5b0:	72657000 	rsbvc	r7, r5, #0
 5b4:	76655f66 	strbtvc	r5, [r5], -r6, ror #30
 5b8:	5f746e65 	svcpl	0x00746e65
 5bc:	72747461 	rsbsvc	r7, r4, #1627389952	; 0x61000000
 5c0:	4f495f00 	svcmi	0x00495f00
 5c4:	6675625f 			; <UNDEFINED> instruction: 0x6675625f
 5c8:	646e655f 	strbtvs	r6, [lr], #-1375	; 0x55f
 5cc:	746e6900 	strbtvc	r6, [lr], #-2304	; 0x900
 5d0:	65766177 	ldrbvs	r6, [r6, #-375]!	; 0x177
 5d4:	74765f00 	ldrbtvc	r5, [r6], #-3840	; 0xf00
 5d8:	656c6261 	strbvs	r6, [ip, #-609]!	; 0x261
 5dc:	66666f5f 	uqsaxvs	r6, r6, pc	; <UNPREDICTABLE>
 5e0:	00746573 	rsbseq	r6, r4, r3, ror r5
 5e4:	72726f63 	rsbsvc	r6, r2, #396	; 0x18c
 5e8:	7361625f 	cmnvc	r1, #-268435451	; 0xf0000005
 5ec:	65740065 	ldrbvs	r0, [r4, #-101]!	; 0x65
 5f0:	616c706d 	cmnvs	ip, sp, rrx
 5f4:	73006574 	movwvc	r6, #1396	; 0x574
 5f8:	6c706d61 	ldclvs	13, cr6, [r0], #-388	; 0xfffffe7c
 5fc:	72665f65 	rsbvc	r5, r6, #404	; 0x194
 600:	63007165 	movwvs	r7, #357	; 0x165
 604:	6572726f 	ldrbvs	r7, [r2, #-623]!	; 0x26f
 608:	6574616c 	ldrbvs	r6, [r4, #-364]!	; 0x16c
 60c:	7400632e 	strvc	r6, [r0], #-814	; 0x32e
 610:	6c61746f 	cfstrdvs	mvd7, [r1], #-444	; 0xfffffe44
 614:	6f727265 	svcvs	0x00727265
 618:	5f5f0072 	svcpl	0x005f0072
 61c:	00343675 	eorseq	r3, r4, r5, ror r6
 620:	666d656d 	strbtvs	r6, [sp], -sp, ror #10
 624:	6f630064 	svcvs	0x00630064
 628:	6769666e 	strbvs	r6, [r9, -lr, ror #12]!
 62c:	52455000 	subpl	r5, r5, #0
 630:	4f435f46 	svcmi	0x00435f46
 634:	5f544e55 	svcpl	0x00544e55
 638:	535f5748 	cmppl	pc, #72, 14	; 0x1200000
 63c:	4c4c4154 	stfmie	f4, [ip], {84}	; 0x54
 640:	435f4445 	cmpmi	pc, #1157627904	; 0x45000000
 644:	454c4359 	strbmi	r4, [ip, #-857]	; 0x359
 648:	52465f53 	subpl	r5, r6, #332	; 0x14c
 64c:	45544e4f 	ldrbmi	r4, [r4, #-3663]	; 0xe4f
 650:	7000444e 	andvc	r4, r0, lr, asr #8
 654:	69636572 	stmdbvs	r3!, {r1, r4, r5, r6, r8, sl, sp, lr}^
 658:	6e6f6973 	mcrvs	9, 3, r6, cr15, cr3, {3}
 65c:	72657000 	rsbvc	r7, r5, #0
 660:	77685f66 	strbvc	r5, [r8, -r6, ror #30]!
 664:	0064695f 	rsbeq	r6, r4, pc, asr r9
 668:	6c637865 	stclvs	8, cr7, [r3], #-404	; 0xfffffe6c
 66c:	5f656475 	svcpl	0x00656475
 670:	656c6469 	strbvs	r6, [ip, #-1129]!	; 0x469
 674:	6c636600 	stclvs	6, cr6, [r3], #-0
 678:	0065736f 	rsbeq	r7, r5, pc, ror #6
 67c:	6e6e6970 	mcrvs	9, 3, r6, cr14, cr0, {3}
 680:	5f006465 	svcpl	0x00006465
 684:	7478656e 	ldrbtvc	r6, [r8], #-1390	; 0x56e
 688:	6f5f5f00 	svcvs	0x005f5f00
 68c:	34366666 	ldrtcc	r6, [r6], #-1638	; 0x666
 690:	7400745f 	strvc	r7, [r0], #-1119	; 0x45f
 694:	006b7361 	rsbeq	r7, fp, r1, ror #6
 698:	5f4f495f 	svcpl	0x004f495f
 69c:	64616572 	strbtvs	r6, [r1], #-1394	; 0x572
 6a0:	7361625f 	cmnvc	r1, #-268435451	; 0xf0000005
 6a4:	656d0065 	strbvs	r0, [sp, #-101]!	; 0x65
 6a8:	7970636d 	ldmdbvc	r0!, {r0, r2, r3, r5, r6, r8, r9, sp, lr}^
 6ac:	4f495f00 	svcmi	0x00495f00
 6b0:	7661735f 			; <UNDEFINED> instruction: 0x7661735f
 6b4:	6e655f65 	cdpvs	15, 6, cr5, cr5, cr5, {3}
 6b8:	72730064 	rsbsvc	r0, r3, #100	; 0x64
 6bc:	00646e61 	rsbeq	r6, r4, r1, ror #28
 6c0:	61705f5f 	cmnvs	r0, pc, asr pc
 6c4:	5f003164 	svcpl	0x00003164
 6c8:	6461705f 	strbtvs	r7, [r1], #-95	; 0x5f
 6cc:	5f5f0032 	svcpl	0x005f0032
 6d0:	33646170 	cmncc	r4, #112, 2
 6d4:	705f5f00 	subsvc	r5, pc, r0, lsl #30
 6d8:	00346461 	eorseq	r6, r4, r1, ror #8
 6dc:	6c697562 	cfstr64vs	mvdx7, [r9], #-392	; 0xfffffe78
 6e0:	67697364 	strbvs	r7, [r9, -r4, ror #6]!
 6e4:	006c616e 	rsbeq	r6, ip, lr, ror #2
 6e8:	5f4f495f 	svcpl	0x004f495f
 6ec:	74697277 	strbtvc	r7, [r9], #-631	; 0x277
 6f0:	6e655f65 	cdpvs	15, 6, cr5, cr5, cr5, {3}
 6f4:	72700064 	rsbsvc	r0, r0, #100	; 0x64
 6f8:	73696365 	cmnvc	r9, #-1811939327	; 0x94000001
 6fc:	70695f65 	rsbvc	r5, r9, r5, ror #30
 700:	6e755f00 	cdpvs	15, 7, cr5, cr5, cr0, {0}
 704:	64657375 	strbtvs	r7, [r5], #-885	; 0x375
 708:	45500032 	ldrbmi	r0, [r0, #-50]	; 0x32
 70c:	545f4652 	ldrbpl	r4, [pc], #-1618	; 714 <shift+0x714>
 710:	5f455059 	svcpl	0x00455059
 714:	41455242 	cmpmi	r5, r2, asr #4
 718:	494f504b 	stmdbmi	pc, {r0, r1, r3, r6, ip, lr}^	; <UNPREDICTABLE>
 71c:	6500544e 	strvs	r5, [r0, #-1102]	; 0x44e
 720:	726f7272 	rsbvc	r7, pc, #536870919	; 0x20000007
 724:	6576656c 	ldrbvs	r6, [r6, #-1388]!	; 0x56c
 728:	7369006c 	cmnvc	r9, #108	; 0x6c
 72c:	72006769 	andvc	r6, r0, #27525120	; 0x1a40000
 730:	695f6665 	ldmdbvs	pc, {r0, r2, r5, r6, r9, sl, sp, lr}^	; <UNPREDICTABLE>
 734:	616d746e 	cmnvs	sp, lr, ror #8
 738:	495f0078 	ldmdbmi	pc, {r3, r4, r5, r6}^	; <UNPREDICTABLE>
 73c:	61625f4f 	cmnvs	r2, pc, asr #30
 740:	70756b63 	rsbsvc	r6, r5, r3, ror #22
 744:	7361625f 	cmnvc	r1, #-268435451	; 0xf0000005
 748:	616d0065 	cmnvs	sp, r5, rrx
 74c:	646e6978 	strbtvs	r6, [lr], #-2424	; 0x978
 750:	50007865 	andpl	r7, r0, r5, ror #16
 754:	5f465245 	svcpl	0x00465245
 758:	4e554f43 	cdpmi	15, 5, cr4, cr5, cr3, {2}
 75c:	57485f54 	smlsldpl	r5, r8, r4, pc	; <UNPREDICTABLE>
 760:	5355425f 	cmppl	r5, #-268435451	; 0xf0000005
 764:	4359435f 	cmpmi	r9, #2080374785	; 0x7c000001
 768:	0053454c 	subseq	r4, r3, ip, asr #10
 76c:	6b6c7562 	blvs	1b1dcfc <__bss_end__+0x1b0ba64>
 770:	72726500 	rsbsvc	r6, r2, #0, 10
 774:	656c726f 	strbvs	r7, [ip, #-623]!	; 0x26f
 778:	5f6c6576 	svcpl	0x006c6576
 77c:	00666572 	rsbeq	r6, r6, r2, ror r5
 780:	64616572 	strbtvs	r6, [r1], #-1394	; 0x572
 784:	635f5f00 	cmpvs	pc, #0, 30
 788:	61706d6f 	cmnvs	r0, pc, ror #26
 78c:	6e665f72 	mcrvs	15, 3, r5, cr6, cr2, {3}
 790:	6700745f 	smlsdvs	r0, pc, r4, r7	; <UNPREDICTABLE>
 794:	69736e65 	ldmdbvs	r3!, {r0, r2, r5, r6, r9, sl, fp, sp, lr}^
 798:	6173006e 	cmnvs	r3, lr, rrx
 79c:	656c706d 	strbvs	r7, [ip, #-109]!	; 0x6d
 7a0:	7470685f 	ldrbtvc	r6, [r0], #-2143	; 0x85f
 7a4:	69660072 	stmdbvs	r6!, {r1, r4, r5, r6}^
 7a8:	6300696e 	movwvs	r6, #2414	; 0x96e
 7ac:	79637570 	stmdbvc	r3!, {r4, r5, r6, r8, sl, ip, sp, lr}^
 7b0:	73656c63 	cmnvc	r5, #25344	; 0x6300
 7b4:	69616d00 	stmdbvs	r1!, {r8, sl, fp, sp, lr}^
 7b8:	495f006e 	ldmdbmi	pc, {r1, r2, r3, r5, r6}^	; <UNPREDICTABLE>
 7bc:	72775f4f 	rsbsvc	r5, r7, #316	; 0x13c
 7c0:	5f657469 	svcpl	0x00657469
 7c4:	65736162 	ldrbvs	r6, [r3, #-354]!	; 0x162
 7c8:	686e6900 	stmdavs	lr!, {r8, fp, sp, lr}^
 7cc:	74697265 	strbtvc	r7, [r9], #-613	; 0x265
 7d0:	6174735f 	cmnvs	r4, pc, asr r3
 7d4:	65720074 	ldrbvs	r0, [r2, #-116]!	; 0x74
 7d8:	746c7573 	strbtvc	r7, [ip], #-1395	; 0x573
 7dc:	696e6900 	stmdbvs	lr!, {r8, fp, sp, lr}^
 7e0:	676e7274 			; <UNDEFINED> instruction: 0x676e7274
 7e4:	64646600 	strbtvs	r6, [r4], #-1536	; 0x600
 7e8:	65007665 	strvs	r7, [r0, #-1637]	; 0x665
 7ec:	6c62616e 	stfvse	f6, [r2], #-440	; 0xfffffe48
 7f0:	6e6f5f65 	cdpvs	15, 6, cr5, cr15, cr5, {3}
 7f4:	6578655f 	ldrbvs	r6, [r8, #-1375]!	; 0x55f
 7f8:	69740063 	ldmdbvs	r4!, {r0, r1, r5, r6}^
 7fc:	676e696d 	strbvs	r6, [lr, -sp, ror #18]!
 800:	706f6f6c 	rsbvc	r6, pc, ip, ror #30
	...

Disassembly of section .debug_loc:

00000000 <.debug_loc>:
       0:	000093e0 	andeq	r9, r0, r0, ror #7
       4:	000093f4 	strdeq	r9, [r0], -r4
       8:	f4500001 			; <UNDEFINED> instruction: 0xf4500001
       c:	04000093 	streq	r0, [r0], #-147	; 0x93
      10:	04000094 	streq	r0, [r0], #-148	; 0x94
      14:	5001f300 	andpl	pc, r1, r0, lsl #6
      18:	0000009f 	muleq	r0, pc, r0	; <UNPREDICTABLE>
      1c:	00000000 	andeq	r0, r0, r0
      20:	00941c00 	addseq	r1, r4, r0, lsl #24
      24:	00941f00 	addseq	r1, r4, r0, lsl #30
      28:	50000100 	andpl	r0, r0, r0, lsl #2
      2c:	0000941f 	andeq	r9, r0, pc, lsl r4
      30:	00009430 	andeq	r9, r0, r0, lsr r4
      34:	00540001 	subseq	r0, r4, r1
      38:	00000000 	andeq	r0, r0, r0
      3c:	30000000 	andcc	r0, r0, r0
      40:	5c000094 	stcpl	0, cr0, [r0], {148}	; 0x94
      44:	01000094 	swpeq	r0, r4, [r0]	; <UNPREDICTABLE>
      48:	945c5000 	ldrbls	r5, [ip], #-0
      4c:	94fc0000 	ldrbtls	r0, [ip], #0
      50:	00010000 	andeq	r0, r1, r0
      54:	0094fc59 	addseq	pc, r4, r9, asr ip	; <UNPREDICTABLE>
      58:	00950400 	addseq	r0, r5, r0, lsl #8
      5c:	50000100 	andpl	r0, r0, r0, lsl #2
      60:	00009504 	andeq	r9, r0, r4, lsl #10
      64:	00009528 	andeq	r9, r0, r8, lsr #10
      68:	01f30004 	mvnseq	r0, r4
      6c:	00009f50 	andeq	r9, r0, r0, asr pc
      70:	00000000 	andeq	r0, r0, r0
      74:	94300000 	ldrtls	r0, [r0], #-0
      78:	945c0000 	ldrbls	r0, [ip], #-0
      7c:	00010000 	andeq	r0, r1, r0
      80:	00945c51 	addseq	r5, r4, r1, asr ip
      84:	0094fc00 	addseq	pc, r4, r0, lsl #24
      88:	57000100 	strpl	r0, [r0, -r0, lsl #2]
      8c:	000094fc 	strdeq	r9, [r0], -ip
      90:	00009508 	andeq	r9, r0, r8, lsl #10
      94:	08510001 	ldmdaeq	r1, {r0}^
      98:	28000095 	stmdacs	r0, {r0, r2, r4, r7}
      9c:	01000095 	swpeq	r0, r5, [r0]	; <UNPREDICTABLE>
      a0:	00005700 	andeq	r5, r0, r0, lsl #14
      a4:	00000000 	andeq	r0, r0, r0
      a8:	945c0000 	ldrbls	r0, [ip], #-0
      ac:	94840000 	strls	r0, [r4], #0
      b0:	00010000 	andeq	r0, r1, r0
      b4:	00949654 	addseq	r9, r4, r4, asr r6
      b8:	0094a900 	addseq	sl, r4, r0, lsl #18
      bc:	53000100 	movwpl	r0, #256	; 0x100
      c0:	000094a9 	andeq	r9, r0, r9, lsr #9
      c4:	000094b0 			; <UNDEFINED> instruction: 0x000094b0
      c8:	02740003 	rsbseq	r0, r4, #3
      cc:	0094b09f 	umullseq	fp, r4, pc, r0	; <UNPREDICTABLE>
      d0:	0094c500 	addseq	ip, r4, r0, lsl #10
      d4:	53000100 	movwpl	r0, #256	; 0x100
      d8:	000094c5 	andeq	r9, r0, r5, asr #9
      dc:	000094c6 	andeq	r9, r0, r6, asr #9
      e0:	7f740003 	svcvc	0x00740003
      e4:	0094c69f 	umullseq	ip, r4, pc, r6	; <UNPREDICTABLE>
      e8:	0094ce00 	addseq	ip, r4, r0, lsl #28
      ec:	54000100 	strpl	r0, [r0], #-256	; 0x100
      f0:	000094d6 	ldrdeq	r9, [r0], -r6
      f4:	000094dc 	ldrdeq	r9, [r0], -ip
      f8:	dc540001 	mrrcle	0, 0, r0, r4, cr1
      fc:	eb000094 	bl	354 <shift+0x354>
     100:	02000094 	andeq	r0, r0, #148	; 0x94
     104:	eb4f9000 	bl	13e410c <__bss_end__+0x13d1e74>
     108:	ec000094 	stc	0, cr0, [r0], {148}	; 0x94
     10c:	03000094 	movweq	r0, #148	; 0x94
     110:	9f7f7400 	svcls	0x007f7400
     114:	000094ec 	andeq	r9, r0, ip, ror #9
     118:	000094fc 	strdeq	r9, [r0], -ip
     11c:	00540001 	subseq	r0, r4, r1
     120:	00000000 	andeq	r0, r0, r0
     124:	28000000 	stmdacs	r0, {}	; <UNPREDICTABLE>
     128:	52000095 	andpl	r0, r0, #149	; 0x95
     12c:	01000095 	swpeq	r0, r5, [r0]	; <UNPREDICTABLE>
     130:	95525000 	ldrbls	r5, [r2, #-0]
     134:	96140000 	ldrls	r0, [r4], -r0
     138:	00010000 	andeq	r0, r1, r0
     13c:	00961459 	addseq	r1, r6, r9, asr r4
     140:	00961c00 	addseq	r1, r6, r0, lsl #24
     144:	f3000400 	vshl.u8	d0, d0, d0
     148:	1c9f5001 	ldcne	0, cr5, [pc], {1}
     14c:	28000096 	stmdacs	r0, {r1, r2, r4, r7}
     150:	01000096 	swpeq	r0, r6, [r0]	; <UNPREDICTABLE>
     154:	00005000 	andeq	r5, r0, r0
     158:	00000000 	andeq	r0, r0, r0
     15c:	95280000 	strls	r0, [r8, #-0]!
     160:	95520000 	ldrbls	r0, [r2, #-0]
     164:	00010000 	andeq	r0, r1, r0
     168:	00955251 	addseq	r5, r5, r1, asr r2
     16c:	00961c00 	addseq	r1, r6, r0, lsl #24
     170:	57000100 	strpl	r0, [r0, -r0, lsl #2]
     174:	0000961c 	andeq	r9, r0, ip, lsl r6
     178:	00009628 	andeq	r9, r0, r8, lsr #12
     17c:	00510001 	subseq	r0, r1, r1
     180:	00000000 	andeq	r0, r0, r0
     184:	28000000 	stmdacs	r0, {}	; <UNPREDICTABLE>
     188:	52000095 	andpl	r0, r0, #149	; 0x95
     18c:	08000095 	stmdaeq	r0, {r0, r2, r4, r7}
     190:	93409000 	movtls	r9, #0
     194:	93419004 	movtls	r9, #4100	; 0x1004
     198:	00955204 	addseq	r5, r5, r4, lsl #4
     19c:	00961400 	addseq	r1, r6, r0, lsl #8
     1a0:	90000800 	andls	r0, r0, r0, lsl #16
     1a4:	90049350 	andls	r9, r4, r0, asr r3
     1a8:	14049351 	strne	r9, [r4], #-849	; 0x351
     1ac:	1c000096 	stcne	0, cr0, [r0], {150}	; 0x96
     1b0:	06000096 			; <UNDEFINED> instruction: 0x06000096
     1b4:	f503f300 			; <UNDEFINED> instruction: 0xf503f300
     1b8:	1c9f2540 	cfldr32ne	mvfx2, [pc], {64}	; 0x40
     1bc:	28000096 	stmdacs	r0, {r1, r2, r4, r7}
     1c0:	08000096 	stmdaeq	r0, {r1, r2, r4, r7}
     1c4:	93409000 	movtls	r9, #0
     1c8:	93419004 	movtls	r9, #4100	; 0x1004
     1cc:	00000004 	andeq	r0, r0, r4
     1d0:	00000000 	andeq	r0, r0, r0
     1d4:	00952800 	addseq	r2, r5, r0, lsl #16
     1d8:	00955200 	addseq	r5, r5, r0, lsl #4
     1dc:	30000200 	andcc	r0, r0, r0, lsl #4
     1e0:	0095529f 	umullseq	r5, r5, pc, r2	; <UNPREDICTABLE>
     1e4:	00957a00 	addseq	r7, r5, r0, lsl #20
     1e8:	56000100 	strpl	r0, [r0], -r0, lsl #2
     1ec:	0000957a 	andeq	r9, r0, sl, ror r5
     1f0:	0000959a 	muleq	r0, sl, r5
     1f4:	01760003 	cmneq	r6, r3
     1f8:	00959a9f 	umullseq	r9, r5, pc, sl	; <UNPREDICTABLE>
     1fc:	0095ba00 	addseq	fp, r5, r0, lsl #20
     200:	76000300 	strvc	r0, [r0], -r0, lsl #6
     204:	95ba9f02 	ldrls	r9, [sl, #3842]!	; 0xf02
     208:	95be0000 	ldrls	r0, [lr, #0]!
     20c:	00030000 	andeq	r0, r3, r0
     210:	be9f0376 	mrclt	3, 4, r0, cr15, cr6, {3}
     214:	e2000095 	and	r0, r0, #149	; 0x95
     218:	01000095 	swpeq	r0, r5, [r0]	; <UNPREDICTABLE>
     21c:	95ee5400 	strbls	r5, [lr, #1024]!	; 0x400
     220:	96140000 	ldrls	r0, [r4], -r0
     224:	00010000 	andeq	r0, r1, r0
     228:	00961c54 	addseq	r1, r6, r4, asr ip
     22c:	00962800 	addseq	r2, r6, r0, lsl #16
     230:	30000200 	andcc	r0, r0, r0, lsl #4
     234:	0000009f 	muleq	r0, pc, r0	; <UNPREDICTABLE>
     238:	00000000 	andeq	r0, r0, r0
     23c:	00962800 	addseq	r2, r6, r0, lsl #16
     240:	00965e00 	addseq	r5, r6, r0, lsl #28
     244:	50000100 	andpl	r0, r0, r0, lsl #2
     248:	0000965e 	andeq	r9, r0, lr, asr r6
     24c:	00009806 	andeq	r9, r0, r6, lsl #16
     250:	06560001 	ldrbeq	r0, [r6], -r1
     254:	0a000098 	beq	4bc <shift+0x4bc>
     258:	01000098 	swpeq	r0, r8, [r0]	; <UNPREDICTABLE>
     25c:	980a5000 	stmdals	sl, {ip, lr}
     260:	98180000 	ldmdals	r8, {}	; <UNPREDICTABLE>
     264:	00010000 	andeq	r0, r1, r0
     268:	00000056 	andeq	r0, r0, r6, asr r0
     26c:	00000000 	andeq	r0, r0, r0
     270:	00962800 	addseq	r2, r6, r0, lsl #16
     274:	00965e00 	addseq	r5, r6, r0, lsl #28
     278:	51000100 	mrspl	r0, (UNDEF: 16)
     27c:	0000965e 	andeq	r9, r0, lr, asr r6
     280:	00009806 	andeq	r9, r0, r6, lsl #16
     284:	06550001 	ldrbeq	r0, [r5], -r1
     288:	0a000098 	beq	4f0 <shift+0x4f0>
     28c:	01000098 	swpeq	r0, r8, [r0]	; <UNPREDICTABLE>
     290:	980a5100 	stmdals	sl, {r8, ip, lr}
     294:	98180000 	ldmdals	r8, {}	; <UNPREDICTABLE>
     298:	00010000 	andeq	r0, r1, r0
     29c:	00000055 	andeq	r0, r0, r5, asr r0
     2a0:	00000000 	andeq	r0, r0, r0
     2a4:	00962800 	addseq	r2, r6, r0, lsl #16
     2a8:	00965e00 	addseq	r5, r6, r0, lsl #28
     2ac:	90000800 	andls	r0, r0, r0, lsl #16
     2b0:	90049340 	andls	r9, r4, r0, asr #6
     2b4:	5e049341 	cdppl	3, 0, cr9, cr4, cr1, {2}
     2b8:	26000096 			; <UNDEFINED> instruction: 0x26000096
     2bc:	08000097 	stmdaeq	r0, {r0, r1, r2, r4, r7}
     2c0:	93509000 	cmpls	r0, #0
     2c4:	93519004 	cmpls	r1, #4
     2c8:	00972604 	addseq	r2, r7, r4, lsl #12
     2cc:	00980600 	addseq	r0, r8, r0, lsl #12
     2d0:	f3000600 	vmax.u8	d0, d0, d0
     2d4:	2540f503 	strbcs	pc, [r0, #-1283]	; 0x503	; <UNPREDICTABLE>
     2d8:	0098069f 	umullseq	r0, r8, pc, r6	; <UNPREDICTABLE>
     2dc:	00980a00 	addseq	r0, r8, r0, lsl #20
     2e0:	90000800 	andls	r0, r0, r0, lsl #16
     2e4:	90049340 	andls	r9, r4, r0, asr #6
     2e8:	0a049341 	beq	124ff4 <__bss_end__+0x112d5c>
     2ec:	18000098 	stmdane	r0, {r3, r4, r7}
     2f0:	06000098 			; <UNDEFINED> instruction: 0x06000098
     2f4:	f503f300 			; <UNDEFINED> instruction: 0xf503f300
     2f8:	009f2540 	addseq	r2, pc, r0, asr #10
     2fc:	00000000 	andeq	r0, r0, r0
     300:	28000000 	stmdacs	r0, {}	; <UNPREDICTABLE>
     304:	5e000096 	mcrpl	0, 0, r0, cr0, cr6, {4}
     308:	01000096 	swpeq	r0, r6, [r0]	; <UNPREDICTABLE>
     30c:	965e5200 	ldrbls	r5, [lr], -r0, lsl #4
     310:	98060000 	stmdals	r6, {}	; <UNPREDICTABLE>
     314:	00030000 	andeq	r0, r3, r0
     318:	067fbc91 			; <UNDEFINED> instruction: 0x067fbc91
     31c:	0a000098 	beq	584 <shift+0x584>
     320:	01000098 	swpeq	r0, r8, [r0]	; <UNPREDICTABLE>
     324:	980a5200 	stmdals	sl, {r9, ip, lr}
     328:	98180000 	ldmdals	r8, {}	; <UNPREDICTABLE>
     32c:	00030000 	andeq	r0, r3, r0
     330:	007fbc91 			; <UNDEFINED> instruction: 0x007fbc91
     334:	00000000 	andeq	r0, r0, r0
     338:	28000000 	stmdacs	r0, {}	; <UNPREDICTABLE>
     33c:	5e000096 	mcrpl	0, 0, r0, cr0, cr6, {4}
     340:	01000096 	swpeq	r0, r6, [r0]	; <UNPREDICTABLE>
     344:	965e5300 	ldrbls	r5, [lr], -r0, lsl #6
     348:	98060000 	stmdals	r6, {}	; <UNPREDICTABLE>
     34c:	00010000 	andeq	r0, r1, r0
     350:	00980658 	addseq	r0, r8, r8, asr r6
     354:	00980a00 	addseq	r0, r8, r0, lsl #20
     358:	53000100 	movwpl	r0, #256	; 0x100
     35c:	0000980a 	andeq	r9, r0, sl, lsl #16
     360:	00009818 	andeq	r9, r0, r8, lsl r8
     364:	00580001 	subseq	r0, r8, r1
     368:	00000000 	andeq	r0, r0, r0
     36c:	28000000 	stmdacs	r0, {}	; <UNPREDICTABLE>
     370:	06000096 			; <UNDEFINED> instruction: 0x06000096
     374:	02000098 	andeq	r0, r0, #152	; 0x98
     378:	06009100 	streq	r9, [r0], -r0, lsl #2
     37c:	18000098 	stmdane	r0, {r3, r4, r7}
     380:	02000098 	andeq	r0, r0, #152	; 0x98
     384:	00009100 	andeq	r9, r0, r0, lsl #2
     388:	00000000 	andeq	r0, r0, r0
     38c:	26000000 	strcs	r0, [r0], -r0
     390:	46000097 			; <UNDEFINED> instruction: 0x46000097
     394:	02000097 	andeq	r0, r0, #151	; 0x97
     398:	469f3000 	ldrmi	r3, [pc], r0
     39c:	74000097 	strvc	r0, [r0], #-151	; 0x97
     3a0:	07000097 			; <UNDEFINED> instruction: 0x07000097
     3a4:	20007700 	andcs	r7, r0, r0, lsl #14
     3a8:	9f22007a 	svcls	0x0022007a
     3ac:	00009774 	andeq	r9, r0, r4, ror r7
     3b0:	00009792 	muleq	r0, r2, r7
     3b4:	007a0006 	rsbseq	r0, sl, r6
     3b8:	9f1c0077 	svcls	0x001c0077
     3bc:	00009792 	muleq	r0, r2, r7
     3c0:	000097ac 	andeq	r9, r0, ip, lsr #15
     3c4:	007a0008 	rsbseq	r0, sl, r8
     3c8:	231c0077 	tstcs	ip, #119	; 0x77
     3cc:	97ac9f01 	strls	r9, [ip, r1, lsl #30]!
     3d0:	97b40000 	ldrls	r0, [r4, r0]!
     3d4:	00080000 	andeq	r0, r8, r0
     3d8:	0077007a 	rsbseq	r0, r7, sl, ror r0
     3dc:	9f1c331c 	svcls	0x001c331c
     3e0:	000097b8 			; <UNDEFINED> instruction: 0x000097b8
     3e4:	000097d4 	ldrdeq	r9, [r0], -r4
     3e8:	da540001 	ble	15003f4 <__bss_end__+0x14ee15c>
     3ec:	fc000097 	stc2	0, cr0, [r0], {151}	; 0x97
     3f0:	01000097 	swpeq	r0, r7, [r0]	; <UNPREDICTABLE>
     3f4:	980a5400 	stmdals	sl, {sl, ip, lr}
     3f8:	98180000 	ldmdals	r8, {}	; <UNPREDICTABLE>
     3fc:	00020000 	andeq	r0, r2, r0
     400:	00009f30 	andeq	r9, r0, r0, lsr pc
     404:	00000000 	andeq	r0, r0, r0
     408:	96360000 	ldrtls	r0, [r6], -r0
     40c:	965e0000 	ldrbls	r0, [lr], -r0
     410:	00010000 	andeq	r0, r1, r0
     414:	00965e51 	addseq	r5, r6, r1, asr lr
     418:	00980600 	addseq	r0, r8, r0, lsl #12
     41c:	55000100 	strpl	r0, [r0, #-256]	; 0x100
     420:	00009806 	andeq	r9, r0, r6, lsl #16
     424:	0000980a 	andeq	r9, r0, sl, lsl #16
     428:	0a510001 	beq	1440434 <__bss_end__+0x142e19c>
     42c:	18000098 	stmdane	r0, {r3, r4, r7}
     430:	01000098 	swpeq	r0, r8, [r0]	; <UNPREDICTABLE>
     434:	00005500 	andeq	r5, r0, r0, lsl #10
     438:	00000000 	andeq	r0, r0, r0
     43c:	96360000 	ldrtls	r0, [r6], -r0
     440:	965e0000 	ldrbls	r0, [lr], -r0
     444:	00010000 	andeq	r0, r1, r0
     448:	00965e50 	addseq	r5, r6, r0, asr lr
     44c:	00980600 	addseq	r0, r8, r0, lsl #12
     450:	56000100 	strpl	r0, [r0], -r0, lsl #2
     454:	00009806 	andeq	r9, r0, r6, lsl #16
     458:	0000980a 	andeq	r9, r0, sl, lsl #16
     45c:	0a500001 	beq	1400468 <__bss_end__+0x13ee1d0>
     460:	18000098 	stmdane	r0, {r3, r4, r7}
     464:	01000098 	swpeq	r0, r8, [r0]	; <UNPREDICTABLE>
     468:	00005600 	andeq	r5, r0, r0, lsl #12
     46c:	00000000 	andeq	r0, r0, r0
     470:	96360000 	ldrtls	r0, [r6], -r0
     474:	965e0000 	ldrbls	r0, [lr], -r0
     478:	00020000 	andeq	r0, r2, r0
     47c:	965e9f30 	uasxls	r9, lr, r0
     480:	968a0000 	strls	r0, [sl], r0
     484:	00010000 	andeq	r0, r1, r0
     488:	00968a59 	addseq	r8, r6, r9, asr sl
     48c:	0096aa00 	addseq	sl, r6, r0, lsl #20
     490:	79000300 	stmdbvc	r0, {r8, r9}
     494:	96aa9f01 	strtls	r9, [sl], r1, lsl #30
     498:	96ca0000 	strbls	r0, [sl], r0
     49c:	00030000 	andeq	r0, r3, r0
     4a0:	ca9f0279 	bgt	fe7c0e8c <__bss_end__+0xfe7aebf4>
     4a4:	ce000096 	mcrgt	0, 0, r0, cr0, cr6, {4}
     4a8:	03000096 	movweq	r0, #150	; 0x96
     4ac:	9f037900 	svcls	0x00037900
     4b0:	000096ce 	andeq	r9, r0, lr, asr #13
     4b4:	000096f4 	strdeq	r9, [r0], -r4
     4b8:	00540001 	subseq	r0, r4, r1
     4bc:	26000097 			; <UNDEFINED> instruction: 0x26000097
     4c0:	01000097 	swpeq	r0, r7, [r0]	; <UNPREDICTABLE>
     4c4:	98065400 	stmdals	r6, {sl, ip, lr}
     4c8:	980a0000 	stmdals	sl, {}	; <UNPREDICTABLE>
     4cc:	00020000 	andeq	r0, r2, r0
     4d0:	00009f30 	andeq	r9, r0, r0, lsr pc
     4d4:	00000000 	andeq	r0, r0, r0
     4d8:	98180000 	ldmdals	r8, {}	; <UNPREDICTABLE>
     4dc:	98d60000 	ldmls	r6, {}^	; <UNPREDICTABLE>
     4e0:	00010000 	andeq	r0, r1, r0
     4e4:	0098d650 	addseq	sp, r8, r0, asr r6
     4e8:	00990200 	addseq	r0, r9, r0, lsl #4
     4ec:	f3000400 	vshl.u8	d0, d0, d0
     4f0:	029f5001 	addseq	r5, pc, #1
     4f4:	08000099 	stmdaeq	r0, {r0, r3, r4, r7}
     4f8:	01000099 	swpeq	r0, r9, [r0]	; <UNPREDICTABLE>
     4fc:	99085000 	stmdbls	r8, {ip, lr}
     500:	990a0000 	stmdbls	sl, {}	; <UNPREDICTABLE>
     504:	00040000 	andeq	r0, r4, r0
     508:	9f5001f3 	svcls	0x005001f3
	...
     514:	00009818 	andeq	r9, r0, r8, lsl r8
     518:	0000983c 	andeq	r9, r0, ip, lsr r8
     51c:	9f300002 	svcls	0x00300002
     520:	000098c6 	andeq	r9, r0, r6, asr #17
     524:	000098d2 	ldrdeq	r9, [r0], -r2
     528:	f8530001 			; <UNDEFINED> instruction: 0xf8530001
     52c:	02000098 	andeq	r0, r0, #152	; 0x98
     530:	01000099 	swpeq	r0, r9, [r0]	; <UNPREDICTABLE>
     534:	99025300 	stmdbls	r2, {r8, r9, ip, lr}
     538:	990a0000 	stmdbls	sl, {}	; <UNPREDICTABLE>
     53c:	00020000 	andeq	r0, r2, r0
     540:	00009f30 	andeq	r9, r0, r0, lsr pc
     544:	00000000 	andeq	r0, r0, r0
     548:	98180000 	ldmdals	r8, {}	; <UNPREDICTABLE>
     54c:	983c0000 	ldmdals	ip!, {}	; <UNPREDICTABLE>
     550:	00020000 	andeq	r0, r2, r0
     554:	98c69f30 	stmials	r6, {r4, r5, r8, r9, sl, fp, ip, pc}^
     558:	98d20000 	ldmls	r2, {}^	; <UNPREDICTABLE>
     55c:	00010000 	andeq	r0, r1, r0
     560:	0098f852 	addseq	pc, r8, r2, asr r8	; <UNPREDICTABLE>
     564:	00990200 	addseq	r0, r9, r0, lsl #4
     568:	52000100 	andpl	r0, r0, #0, 2
     56c:	00009902 	andeq	r9, r0, r2, lsl #18
     570:	0000990a 	andeq	r9, r0, sl, lsl #18
     574:	9f300002 	svcls	0x00300002
	...
     580:	0000990c 	andeq	r9, r0, ip, lsl #18
     584:	00009928 	andeq	r9, r0, r8, lsr #18
     588:	28500001 	ldmdacs	r0, {r0}^
     58c:	cc000099 	stcgt	0, cr0, [r0], {153}	; 0x99
     590:	0100009a 	swpeq	r0, sl, [r0]	; <UNPREDICTABLE>
     594:	00005900 	andeq	r5, r0, r0, lsl #18
     598:	00000000 	andeq	r0, r0, r0
     59c:	990c0000 	stmdbls	ip, {}	; <UNPREDICTABLE>
     5a0:	99320000 	ldmdbls	r2!, {}	; <UNPREDICTABLE>
     5a4:	00010000 	andeq	r0, r1, r0
     5a8:	00993251 	addseq	r3, r9, r1, asr r2
     5ac:	009ac400 	addseq	ip, sl, r0, lsl #8
     5b0:	57000100 	strpl	r0, [r0, -r0, lsl #2]
     5b4:	00009ac4 	andeq	r9, r0, r4, asr #21
     5b8:	00009ac8 	andeq	r9, r0, r8, asr #21
     5bc:	c8510001 	ldmdagt	r1, {r0}^
     5c0:	cc00009a 	stcgt	0, cr0, [r0], {154}	; 0x9a
     5c4:	0100009a 	swpeq	r0, sl, [r0]	; <UNPREDICTABLE>
     5c8:	00005700 	andeq	r5, r0, r0, lsl #14
     5cc:	00000000 	andeq	r0, r0, r0
     5d0:	990c0000 	stmdbls	ip, {}	; <UNPREDICTABLE>
     5d4:	99e60000 	stmibls	r6!, {}^	; <UNPREDICTABLE>
     5d8:	00010000 	andeq	r0, r1, r0
     5dc:	0099e652 	addseq	lr, r9, r2, asr r6
     5e0:	009ac400 	addseq	ip, sl, r0, lsl #8
     5e4:	f3000400 	vshl.u8	d0, d0, d0
     5e8:	c49f5201 	ldrgt	r5, [pc], #513	; 5f0 <shift+0x5f0>
     5ec:	c800009a 	stmdagt	r0, {r1, r3, r4, r7}
     5f0:	0100009a 	swpeq	r0, sl, [r0]	; <UNPREDICTABLE>
     5f4:	9ac85200 	bls	ff214dfc <__bss_end__+0xff202b64>
     5f8:	9acc0000 	bls	ff300600 <__bss_end__+0xff2ee368>
     5fc:	00040000 	andeq	r0, r4, r0
     600:	9f5201f3 	svcls	0x005201f3
	...
     60c:	0000990c 	andeq	r9, r0, ip, lsl #18
     610:	00009932 	andeq	r9, r0, r2, lsr r9
     614:	32530001 	subscc	r0, r3, #1
     618:	c4000099 	strgt	r0, [r0], #-153	; 0x99
     61c:	0100009a 	swpeq	r0, sl, [r0]	; <UNPREDICTABLE>
     620:	9ac45800 	bls	ff116628 <__bss_end__+0xff104390>
     624:	9ac80000 	bls	ff20062c <__bss_end__+0xff1ee394>
     628:	00010000 	andeq	r0, r1, r0
     62c:	009ac853 	addseq	ip, sl, r3, asr r8
     630:	009acc00 	addseq	ip, sl, r0, lsl #24
     634:	58000100 	stmdapl	r0, {r8}
	...
     640:	00009a04 	andeq	r9, r0, r4, lsl #20
     644:	00009a1c 	andeq	r9, r0, ip, lsl sl
     648:	9f300002 	svcls	0x00300002
     64c:	00009a1c 	andeq	r9, r0, ip, lsl sl
     650:	00009a2a 	andeq	r9, r0, sl, lsr #20
     654:	00780007 	rsbseq	r0, r8, r7
     658:	22007520 	andcs	r7, r0, #32, 10	; 0x8000000
     65c:	009a2a9f 	umullseq	r2, sl, pc, sl	; <UNPREDICTABLE>
     660:	009a4200 	addseq	r4, sl, r0, lsl #4
     664:	75000800 	strvc	r0, [r0, #-2048]	; 0x800
     668:	1c007800 	stcne	8, cr7, [r0], {-0}
     66c:	829f1c35 	addshi	r1, pc, #13568	; 0x3500
     670:	9800009a 	stmdals	r0, {r1, r3, r4, r7}
     674:	0100009a 	swpeq	r0, sl, [r0]	; <UNPREDICTABLE>
     678:	9a9c5400 	bls	fe715680 <__bss_end__+0xfe7033e8>
     67c:	9abc0000 	bls	fef00684 <__bss_end__+0xfeeee3ec>
     680:	00010000 	andeq	r0, r1, r0
     684:	009ac854 	addseq	ip, sl, r4, asr r8
     688:	009acc00 	addseq	ip, sl, r0, lsl #24
     68c:	30000200 	andcc	r0, r0, r0, lsl #4
     690:	0000009f 	muleq	r0, pc, r0	; <UNPREDICTABLE>
     694:	00000000 	andeq	r0, r0, r0
     698:	009a0400 	addseq	r0, sl, r0, lsl #8
     69c:	009ac000 	addseq	ip, sl, r0
     6a0:	90000800 	andls	r0, r0, r0, lsl #16
     6a4:	90049350 	andls	r9, r4, r0, asr r3
     6a8:	c8049351 	stmdagt	r4, {r0, r4, r6, r8, r9, ip, pc}
     6ac:	cc00009a 	stcgt	0, cr0, [r0], {154}	; 0x9a
     6b0:	0800009a 	stmdaeq	r0, {r1, r3, r4, r7}
     6b4:	93509000 	cmpls	r0, #0
     6b8:	93519004 	cmpls	r1, #4
     6bc:	00000004 	andeq	r0, r0, r4
     6c0:	00000000 	andeq	r0, r0, r0
     6c4:	00991800 	addseq	r1, r9, r0, lsl #16
     6c8:	00993200 	addseq	r3, r9, r0, lsl #4
     6cc:	51000100 	mrspl	r0, (UNDEF: 16)
     6d0:	00009932 	andeq	r9, r0, r2, lsr r9
     6d4:	00009ac4 	andeq	r9, r0, r4, asr #21
     6d8:	c4570001 	ldrbgt	r0, [r7], #-1
     6dc:	c800009a 	stmdagt	r0, {r1, r3, r4, r7}
     6e0:	0100009a 	swpeq	r0, sl, [r0]	; <UNPREDICTABLE>
     6e4:	9ac85100 	bls	ff214aec <__bss_end__+0xff202854>
     6e8:	9acc0000 	bls	ff3006f0 <__bss_end__+0xff2ee458>
     6ec:	00010000 	andeq	r0, r1, r0
     6f0:	00000057 	andeq	r0, r0, r7, asr r0
     6f4:	00000000 	andeq	r0, r0, r0
     6f8:	00991800 	addseq	r1, r9, r0, lsl #16
     6fc:	00992800 	addseq	r2, r9, r0, lsl #16
     700:	50000100 	andpl	r0, r0, r0, lsl #2
     704:	00009928 	andeq	r9, r0, r8, lsr #18
     708:	00009acc 	andeq	r9, r0, ip, asr #21
     70c:	00590001 	subseq	r0, r9, r1
     710:	00000000 	andeq	r0, r0, r0
     714:	18000000 	stmdane	r0, {}	; <UNPREDICTABLE>
     718:	32000099 	andcc	r0, r0, #153	; 0x99
     71c:	02000099 	andeq	r0, r0, #153	; 0x99
     720:	a29f3000 	addsge	r3, pc, #0
     724:	ae000099 	mcrge	0, 0, r0, cr0, cr9, {4}
     728:	01000099 	swpeq	r0, r9, [r0]	; <UNPREDICTABLE>
     72c:	99ce5300 	stmibls	lr, {r8, r9, ip, lr}^
     730:	99d20000 	ldmibls	r2, {}^	; <UNPREDICTABLE>
     734:	00010000 	andeq	r0, r1, r0
     738:	009ac454 	addseq	ip, sl, r4, asr r4
     73c:	009ac800 	addseq	ip, sl, r0, lsl #16
     740:	30000200 	andcc	r0, r0, r0, lsl #4
     744:	0000009f 	muleq	r0, pc, r0	; <UNPREDICTABLE>
     748:	00000000 	andeq	r0, r0, r0
     74c:	00991800 	addseq	r1, r9, r0, lsl #16
     750:	00993200 	addseq	r3, r9, r0, lsl #4
     754:	30000200 	andcc	r0, r0, r0, lsl #4
     758:	009ac49f 	umullseq	ip, sl, pc, r4	; <UNPREDICTABLE>
     75c:	009ac800 	addseq	ip, sl, r0, lsl #16
     760:	30000200 	andcc	r0, r0, r0, lsl #4
     764:	0000009f 	muleq	r0, pc, r0	; <UNPREDICTABLE>
     768:	00000000 	andeq	r0, r0, r0
     76c:	009acc00 	addseq	ip, sl, r0, lsl #24
     770:	009adc00 	addseq	sp, sl, r0, lsl #24
     774:	50000100 	andpl	r0, r0, r0, lsl #2
     778:	00009adc 	ldrdeq	r9, [r0], -ip
     77c:	00009ae6 	andeq	r9, r0, r6, ror #21
     780:	e6540001 	ldrb	r0, [r4], -r1
     784:	0800009a 	stmdaeq	r0, {r1, r3, r4, r7}
     788:	0400009b 	streq	r0, [r0], #-155	; 0x9b
     78c:	5001f300 	andpl	pc, r1, r0, lsl #6
     790:	0000009f 	muleq	r0, pc, r0	; <UNPREDICTABLE>
     794:	00000000 	andeq	r0, r0, r0
     798:	009acc00 	addseq	ip, sl, r0, lsl #24
     79c:	009ad400 	addseq	sp, sl, r0, lsl #8
     7a0:	51000100 	mrspl	r0, (UNDEF: 16)
     7a4:	00009ad4 	ldrdeq	r9, [r0], -r4
     7a8:	00009ae6 	andeq	r9, r0, r6, ror #21
     7ac:	e6560001 	ldrb	r0, [r6], -r1
     7b0:	0800009a 	stmdaeq	r0, {r1, r3, r4, r7}
     7b4:	0400009b 	streq	r0, [r0], #-155	; 0x9b
     7b8:	5101f300 	mrspl	pc, SP_irq	; <UNPREDICTABLE>
     7bc:	0000009f 	muleq	r0, pc, r0	; <UNPREDICTABLE>
     7c0:	00000000 	andeq	r0, r0, r0
     7c4:	009acc00 	addseq	ip, sl, r0, lsl #24
     7c8:	009adf00 	addseq	sp, sl, r0, lsl #30
     7cc:	52000100 	andpl	r0, r0, #0, 2
     7d0:	00009adf 	ldrdeq	r9, [r0], -pc	; <UNPREDICTABLE>
     7d4:	00009b08 	andeq	r9, r0, r8, lsl #22
     7d8:	01f30004 	mvnseq	r0, r4
     7dc:	00009f52 	andeq	r9, r0, r2, asr pc
     7e0:	00000000 	andeq	r0, r0, r0
     7e4:	9ae20000 	bls	ff8807ec <__bss_end__+0xff86e554>
     7e8:	9ae60000 	bls	ff9807f0 <__bss_end__+0xff96e558>
     7ec:	00020000 	andeq	r0, r2, r0
     7f0:	9ae69f30 	bls	ff9a84b8 <__bss_end__+0xff996220>
     7f4:	9aea0000 	bls	ffa807fc <__bss_end__+0xffa6e564>
     7f8:	00070000 	andeq	r0, r7, r0
     7fc:	01f30074 	mvnseq	r0, r4, ror r0
     800:	ea9f1c50 	b	fe7c7948 <__bss_end__+0xfe7b56b0>
     804:	fa00009a 	blx	a74 <shift+0xa74>
     808:	0800009a 	stmdaeq	r0, {r1, r3, r4, r7}
     80c:	5001f300 	andpl	pc, r1, r0, lsl #6
     810:	22007420 	andcs	r7, r0, #32, 8	; 0x20000000
     814:	009afa9f 	umullseq	pc, sl, pc, sl	; <UNPREDICTABLE>
     818:	009afe00 	addseq	pc, sl, r0, lsl #28
     81c:	74000900 	strvc	r0, [r0], #-2304	; 0x900
     820:	5001f300 	andpl	pc, r1, r0, lsl #6
     824:	9f01231c 	svcls	0x0001231c
	...
     830:	00009ae2 	andeq	r9, r0, r2, ror #21
     834:	00009ae6 	andeq	r9, r0, r6, ror #21
     838:	e6500001 	ldrb	r0, [r0], -r1
     83c:	0400009a 	streq	r0, [r0], #-154	; 0x9a
     840:	0100009b 	swpeq	r0, fp, [r0]	; <UNPREDICTABLE>
     844:	9b045500 	blls	115c4c <__bss_end__+0x1039b4>
     848:	9b070000 	blls	1c0850 <__bss_end__+0x1ae5b8>
     84c:	00010000 	andeq	r0, r1, r0
     850:	00000050 	andeq	r0, r0, r0, asr r0
     854:	00000000 	andeq	r0, r0, r0
     858:	009b0800 	addseq	r0, fp, r0, lsl #16
     85c:	009b2400 	addseq	r2, fp, r0, lsl #8
     860:	50000100 	andpl	r0, r0, r0, lsl #2
     864:	00009b24 	andeq	r9, r0, r4, lsr #22
     868:	00009b8e 	andeq	r9, r0, lr, lsl #23
     86c:	8e580001 	cdphi	0, 5, cr0, cr8, cr1, {0}
     870:	9400009b 	strls	r0, [r0], #-155	; 0x9b
     874:	0400009b 	streq	r0, [r0], #-155	; 0x9b
     878:	5001f300 	andpl	pc, r1, r0, lsl #6
     87c:	009b949f 	umullseq	r9, fp, pc, r4	; <UNPREDICTABLE>
     880:	009b9800 	addseq	r9, fp, r0, lsl #16
     884:	58000100 	stmdapl	r0, {r8}
	...
     890:	00009b08 	andeq	r9, r0, r8, lsl #22
     894:	00009b1a 	andeq	r9, r0, sl, lsl fp
     898:	1a510001 	bne	14408a4 <__bss_end__+0x142e60c>
     89c:	9800009b 	stmdals	r0, {r0, r1, r3, r4, r7}
     8a0:	0400009b 	streq	r0, [r0], #-155	; 0x9b
     8a4:	5101f300 	mrspl	pc, SP_irq	; <UNPREDICTABLE>
     8a8:	0000009f 	muleq	r0, pc, r0	; <UNPREDICTABLE>
     8ac:	00000000 	andeq	r0, r0, r0
     8b0:	009b0800 	addseq	r0, fp, r0, lsl #16
     8b4:	009b2400 	addseq	r2, fp, r0, lsl #8
     8b8:	52000100 	andpl	r0, r0, #0, 2
     8bc:	00009b24 	andeq	r9, r0, r4, lsr #22
     8c0:	00009b8e 	andeq	r9, r0, lr, lsl #23
     8c4:	8e540001 	cdphi	0, 5, cr0, cr4, cr1, {0}
     8c8:	9400009b 	strls	r0, [r0], #-155	; 0x9b
     8cc:	0400009b 	streq	r0, [r0], #-155	; 0x9b
     8d0:	5201f300 	andpl	pc, r1, #0, 6
     8d4:	009b949f 	umullseq	r9, fp, pc, r4	; <UNPREDICTABLE>
     8d8:	009b9800 	addseq	r9, fp, r0, lsl #16
     8dc:	54000100 	strpl	r0, [r0], #-256	; 0x100
	...
     8e8:	00009b08 	andeq	r9, r0, r8, lsl #22
     8ec:	00009b12 	andeq	r9, r0, r2, lsl fp
     8f0:	12530001 	subsne	r0, r3, #1
     8f4:	9800009b 	stmdals	r0, {r0, r1, r3, r4, r7}
     8f8:	0200009b 	andeq	r0, r0, #155	; 0x9b
     8fc:	00489100 	subeq	r9, r8, r0, lsl #2
     900:	00000000 	andeq	r0, r0, r0
     904:	08000000 	stmdaeq	r0, {}	; <UNPREDICTABLE>
     908:	9400009b 	strls	r0, [r0], #-155	; 0x9b
     90c:	0200009b 	andeq	r0, r0, #155	; 0x9b
     910:	94009100 	strls	r9, [r0], #-256	; 0x100
     914:	9800009b 	stmdals	r0, {r0, r1, r3, r4, r7}
     918:	0200009b 	andeq	r0, r0, #155	; 0x9b
     91c:	00009100 	andeq	r9, r0, r0, lsl #2
     920:	00000000 	andeq	r0, r0, r0
     924:	08000000 	stmdaeq	r0, {}	; <UNPREDICTABLE>
     928:	9400009b 	strls	r0, [r0], #-155	; 0x9b
     92c:	0200009b 	andeq	r0, r0, #155	; 0x9b
     930:	94049100 	strls	r9, [r4], #-256	; 0x100
     934:	9800009b 	stmdals	r0, {r0, r1, r3, r4, r7}
     938:	0200009b 	andeq	r0, r0, #155	; 0x9b
     93c:	00049100 	andeq	r9, r4, r0, lsl #2
     940:	00000000 	andeq	r0, r0, r0
     944:	08000000 	stmdaeq	r0, {}	; <UNPREDICTABLE>
     948:	2400009b 	strcs	r0, [r0], #-155	; 0x9b
     94c:	0200009b 	andeq	r0, r0, #155	; 0x9b
     950:	009f3000 	addseq	r3, pc, r0
     954:	00000000 	andeq	r0, r0, r0
     958:	24000000 	strcs	r0, [r0], #-0
     95c:	3000009b 	mulcc	r0, fp, r0
     960:	0200009b 	andeq	r0, r0, #155	; 0x9b
     964:	309f3000 	addscc	r3, pc, r0
     968:	7c00009b 	stcvc	0, cr0, [r0], {155}	; 0x9b
     96c:	0100009b 	swpeq	r0, fp, [r0]	; <UNPREDICTABLE>
     970:	9b945900 	blls	fe516d78 <__bss_end__+0xfe504ae0>
     974:	9b980000 	blls	fe60097c <__bss_end__+0xfe5ee6e4>
     978:	00020000 	andeq	r0, r2, r0
     97c:	00009f30 	andeq	r9, r0, r0, lsr pc
     980:	00000000 	andeq	r0, r0, r0
     984:	9b300000 	blls	c0098c <__bss_end__+0xbee6f4>
     988:	9b440000 	blls	1100990 <__bss_end__+0x10ee6f8>
     98c:	00020000 	andeq	r0, r2, r0
     990:	00009f30 	andeq	r9, r0, r0, lsr pc
     994:	00000000 	andeq	r0, r0, r0
     998:	9b300000 	blls	c009a0 <__bss_end__+0xbee708>
     99c:	9b440000 	blls	11009a4 <__bss_end__+0x10ee70c>
     9a0:	00020000 	andeq	r0, r2, r0
     9a4:	9b449f30 	blls	112866c <__bss_end__+0x11163d4>
     9a8:	9b740000 	blls	1d009b0 <__bss_end__+0x1cee718>
     9ac:	00010000 	andeq	r0, r1, r0
     9b0:	0000005b 	andeq	r0, r0, fp, asr r0
     9b4:	00000000 	andeq	r0, r0, r0
     9b8:	009b2400 	addseq	r2, fp, r0, lsl #8
     9bc:	009b3000 	addseq	r3, fp, r0
     9c0:	30000200 	andcc	r0, r0, r0, lsl #4
     9c4:	009b309f 	umullseq	r3, fp, pc, r0	; <UNPREDICTABLE>
     9c8:	009b7000 	addseq	r7, fp, r0
     9cc:	91000200 	mrsls	r0, R8_usr
     9d0:	009b7444 	addseq	r7, fp, r4, asr #8
     9d4:	009b7c00 	addseq	r7, fp, r0, lsl #24
     9d8:	91000200 	mrsls	r0, R8_usr
     9dc:	009b9444 	addseq	r9, fp, r4, asr #8
     9e0:	009b9800 	addseq	r9, fp, r0, lsl #16
     9e4:	30000200 	andcc	r0, r0, r0, lsl #4
     9e8:	0000009f 	muleq	r0, pc, r0	; <UNPREDICTABLE>
     9ec:	00000000 	andeq	r0, r0, r0
     9f0:	009b2400 	addseq	r2, fp, r0, lsl #8
     9f4:	009b3000 	addseq	r3, fp, r0
     9f8:	30000200 	andcc	r0, r0, r0, lsl #4
     9fc:	009b949f 	umullseq	r9, fp, pc, r4	; <UNPREDICTABLE>
     a00:	009b9800 	addseq	r9, fp, r0, lsl #16
     a04:	30000200 	andcc	r0, r0, r0, lsl #4
     a08:	0000009f 	muleq	r0, pc, r0	; <UNPREDICTABLE>
     a0c:	00000000 	andeq	r0, r0, r0
     a10:	009b9800 	addseq	r9, fp, r0, lsl #16
     a14:	009bb600 	addseq	fp, fp, r0, lsl #12
     a18:	50000100 	andpl	r0, r0, r0, lsl #2
     a1c:	00009bb6 			; <UNDEFINED> instruction: 0x00009bb6
     a20:	00009bcc 	andeq	r9, r0, ip, asr #23
     a24:	cc5c0001 	mrrcgt	0, 0, r0, ip, cr1
     a28:	5600009b 			; <UNDEFINED> instruction: 0x5600009b
     a2c:	0400009c 	streq	r0, [r0], #-156	; 0x9c
     a30:	5001f300 	andpl	pc, r1, r0, lsl #6
     a34:	0000009f 	muleq	r0, pc, r0	; <UNPREDICTABLE>
     a38:	00000000 	andeq	r0, r0, r0
     a3c:	009b9800 	addseq	r9, fp, r0, lsl #16
     a40:	009bb800 	addseq	fp, fp, r0, lsl #16
     a44:	51000100 	mrspl	r0, (UNDEF: 16)
     a48:	00009bb8 			; <UNDEFINED> instruction: 0x00009bb8
     a4c:	00009c56 	andeq	r9, r0, r6, asr ip
     a50:	01f30004 	mvnseq	r0, r4
     a54:	00009f51 	andeq	r9, r0, r1, asr pc
     a58:	00000000 	andeq	r0, r0, r0
     a5c:	9b980000 	blls	fe600a64 <__bss_end__+0xfe5ee7cc>
     a60:	9ba00000 	blls	fe800a68 <__bss_end__+0xfe7ee7d0>
     a64:	00010000 	andeq	r0, r1, r0
     a68:	009ba052 	addseq	sl, fp, r2, asr r0
     a6c:	009c5600 	addseq	r5, ip, r0, lsl #12
     a70:	f3000400 	vshl.u8	d0, d0, d0
     a74:	009f5201 	addseq	r5, pc, r1, lsl #4
     a78:	00000000 	andeq	r0, r0, r0
     a7c:	98000000 	stmdals	r0, {}	; <UNPREDICTABLE>
     a80:	c400009b 	strgt	r0, [r0], #-155	; 0x9b
     a84:	0100009b 	swpeq	r0, fp, [r0]	; <UNPREDICTABLE>
     a88:	9bc45300 	blls	ff115690 <__bss_end__+0xff1033f8>
     a8c:	9c560000 	mrals	r0, r6, acc0
     a90:	00040000 	andeq	r0, r4, r0
     a94:	9f5301f3 	svcls	0x005301f3
	...
     aa0:	00009c06 	andeq	r9, r0, r6, lsl #24
     aa4:	00009c16 	andeq	r9, r0, r6, lsl ip
     aa8:	00500001 	subseq	r0, r0, r1
     aac:	00000000 	andeq	r0, r0, r0
     ab0:	98000000 	stmdals	r0, {}	; <UNPREDICTABLE>
     ab4:	cc00009b 	stcgt	0, cr0, [r0], {155}	; 0x9b
     ab8:	0200009b 	andeq	r0, r0, #155	; 0x9b
     abc:	cc9f3000 	ldcgt	0, cr3, [pc], {0}
     ac0:	d200009b 	andle	r0, r0, #155	; 0x9b
     ac4:	0100009b 	swpeq	r0, fp, [r0]	; <UNPREDICTABLE>
     ac8:	9c185000 	ldcls	0, cr5, [r8], {-0}
     acc:	9c1a0000 	ldcls	0, cr0, [sl], {-0}
     ad0:	00010000 	andeq	r0, r1, r0
     ad4:	009c1a50 	addseq	r1, ip, r0, asr sl
     ad8:	009c2000 	addseq	r2, ip, r0
     adc:	5e000100 	adfpls	f0, f0, f0
     ae0:	00009c20 	andeq	r9, r0, r0, lsr #24
     ae4:	00009c22 	andeq	r9, r0, r2, lsr #24
     ae8:	22500001 	subscs	r0, r0, #1
     aec:	2800009c 	stmdacs	r0, {r2, r3, r4, r7}
     af0:	0100009c 	swpeq	r0, ip, [r0]	; <UNPREDICTABLE>
     af4:	9c285700 	stcls	7, cr5, [r8], #-0
     af8:	9c2a0000 	stcls	0, cr0, [sl], #-0
     afc:	00010000 	andeq	r0, r1, r0
     b00:	009c2a50 	addseq	r2, ip, r0, asr sl
     b04:	009c3600 	addseq	r3, ip, r0, lsl #12
     b08:	56000100 	strpl	r0, [r0], -r0, lsl #2
     b0c:	00009c36 	andeq	r9, r0, r6, lsr ip
     b10:	00009c56 	andeq	r9, r0, r6, asr ip
     b14:	00500001 	subseq	r0, r0, r1
     b18:	00000000 	andeq	r0, r0, r0
     b1c:	cc000000 	stcgt	0, cr0, [r0], {-0}
     b20:	d200009b 	andle	r0, r0, #155	; 0x9b
     b24:	0200009b 	andeq	r0, r0, #155	; 0x9b
     b28:	d29f3000 	addsle	r3, pc, #0
     b2c:	3200009b 	andcc	r0, r0, #155	; 0x9b
     b30:	0100009c 	swpeq	r0, ip, [r0]	; <UNPREDICTABLE>
     b34:	9c325300 	ldcls	3, cr5, [r2], #-0
     b38:	9c360000 	ldcls	0, cr0, [r6], #-0
     b3c:	00030000 	andeq	r0, r3, r0
     b40:	369f7c73 			; <UNDEFINED> instruction: 0x369f7c73
     b44:	5600009c 			; <UNDEFINED> instruction: 0x5600009c
     b48:	0100009c 	swpeq	r0, ip, [r0]	; <UNPREDICTABLE>
     b4c:	00005300 	andeq	r5, r0, r0, lsl #6
     b50:	00000000 	andeq	r0, r0, r0
     b54:	9bcc0000 	blls	ff300b5c <__bss_end__+0xff2ee8c4>
     b58:	9c420000 	marls	acc0, r0, r2
     b5c:	00070000 	andeq	r0, r7, r0
     b60:	01f3007c 	mvnseq	r0, ip, ror r0
     b64:	429f1c50 	addsmi	r1, pc, #80, 24	; 0x5000
     b68:	4e00009c 	mcrmi	0, 0, r0, cr0, cr12, {4}
     b6c:	0a00009c 	beq	de4 <shift+0xde4>
     b70:	f3007c00 			; <UNDEFINED> instruction: 0xf3007c00
     b74:	231c5001 	tstcs	ip, #1
     b78:	4e9f0180 	fmlmi<illegal precision>	f0, f7, f0
     b7c:	5600009c 			; <UNDEFINED> instruction: 0x5600009c
     b80:	0700009c 			; <UNDEFINED> instruction: 0x0700009c
     b84:	f3007c00 			; <UNDEFINED> instruction: 0xf3007c00
     b88:	9f1c5001 	svcls	0x001c5001
	...
     b94:	00009b98 	muleq	r0, r8, fp
     b98:	00009bcc 	andeq	r9, r0, ip, asr #23
     b9c:	9f300002 	svcls	0x00300002
     ba0:	00009bcc 	andeq	r9, r0, ip, asr #23
     ba4:	00009bd2 	ldrdeq	r9, [r0], -r2
     ba8:	42550001 	subsmi	r0, r5, #1
     bac:	4600009c 			; <UNDEFINED> instruction: 0x4600009c
     bb0:	0500009c 	streq	r0, [r0, #-156]	; 0x9c
     bb4:	7a007b00 	bvc	1f7bc <__bss_end__+0xd524>
     bb8:	9c462200 	sfmls	f2, 2, [r6], {-0}
     bbc:	9c500000 	mrals	r0, r0, acc0
     bc0:	00070000 	andeq	r0, r7, r0
     bc4:	007a007b 	rsbseq	r0, sl, fp, ror r0
     bc8:	501c3422 	andspl	r3, ip, r2, lsr #8
     bcc:	5600009c 			; <UNDEFINED> instruction: 0x5600009c
     bd0:	0100009c 	swpeq	r0, ip, [r0]	; <UNPREDICTABLE>
     bd4:	00005500 	andeq	r5, r0, r0, lsl #10
     bd8:	00000000 	andeq	r0, r0, r0
     bdc:	9c580000 	mrals	r0, r8, acc0
     be0:	9c6b0000 	stclls	0, cr0, [fp], #-0
     be4:	00010000 	andeq	r0, r1, r0
     be8:	009c6b50 	addseq	r6, ip, r0, asr fp
     bec:	009c7200 	addseq	r7, ip, r0, lsl #4
     bf0:	54000100 	strpl	r0, [r0], #-256	; 0x100
	...
     bfc:	00008860 	andeq	r8, r0, r0, ror #16
     c00:	00008c04 	andeq	r8, r0, r4, lsl #24
     c04:	a8910004 	ldmge	r1, {r2}
     c08:	8c047fb4 	stchi	15, cr7, [r4], {180}	; 0xb4
     c0c:	8c0c0000 	stchi	0, cr0, [ip], {-0}
     c10:	00010000 	andeq	r0, r1, r0
     c14:	008c0c54 	addeq	r0, ip, r4, asr ip
     c18:	008eb600 	addeq	fp, lr, r0, lsl #12
     c1c:	91000400 	tstls	r0, r0, lsl #8
     c20:	b67fb4a8 	ldrbtlt	fp, [pc], -r8, lsr #9
     c24:	6c00008e 	stcvs	0, cr0, [r0], {142}	; 0x8e
     c28:	0100008f 	smlabbeq	r0, pc, r0, r0	; <UNPREDICTABLE>
     c2c:	8f6c5400 	svchi	0x006c5400
     c30:	8f850000 	svchi	0x00850000
     c34:	00020000 	andeq	r0, r2, r0
     c38:	8f854290 	svchi	0x00854290
     c3c:	8f860000 	svchi	0x00860000
     c40:	00030000 	andeq	r0, r3, r0
     c44:	869f7f74 			; <UNDEFINED> instruction: 0x869f7f74
     c48:	9a00008f 	bls	e8c <shift+0xe8c>
     c4c:	0100008f 	smlabbeq	r0, pc, r0, r0	; <UNPREDICTABLE>
     c50:	902a5400 	eorls	r5, sl, r0, lsl #8
     c54:	90340000 	eorsls	r0, r4, r0
     c58:	00020000 	andeq	r0, r2, r0
     c5c:	90349f30 	eorsls	r9, r4, r0, lsr pc
     c60:	92020000 	andls	r0, r2, #0
     c64:	00040000 	andeq	r0, r4, r0
     c68:	7fb4a891 	svcvc	0x00b4a891
     c6c:	00009216 	andeq	r9, r0, r6, lsl r2
     c70:	000092a2 	andeq	r9, r0, r2, lsr #5
     c74:	a8910004 	ldmge	r1, {r2}
     c78:	92c27fb4 	sbcls	r7, r2, #180, 30	; 0x2d0
     c7c:	92d80000 	sbcsls	r0, r8, #0
     c80:	00040000 	andeq	r0, r4, r0
     c84:	7fb4a891 	svcvc	0x00b4a891
	...
     c90:	00008860 	andeq	r8, r0, r0, ror #16
     c94:	00008882 	andeq	r8, r0, r2, lsl #17
     c98:	9f300002 	svcls	0x00300002
     c9c:	00008eb6 			; <UNDEFINED> instruction: 0x00008eb6
     ca0:	00008ebe 			; <UNDEFINED> instruction: 0x00008ebe
     ca4:	9f300002 	svcls	0x00300002
     ca8:	00008ebe 			; <UNDEFINED> instruction: 0x00008ebe
     cac:	00008ec2 	andeq	r8, r0, r2, asr #29
     cb0:	c2510001 	subsgt	r0, r1, #1
     cb4:	1400008e 	strne	r0, [r0], #-142	; 0x8e
     cb8:	0300008f 	movweq	r0, #143	; 0x8f
     cbc:	9f787100 	svcls	0x00787100
     cc0:	00008f44 	andeq	r8, r0, r4, asr #30
     cc4:	00008f4c 	andeq	r8, r0, ip, asr #30
     cc8:	34510001 	ldrbcc	r0, [r1], #-1
     ccc:	4e000090 	mcrmi	0, 0, r0, cr0, cr0, {4}
     cd0:	02000090 	andeq	r0, r0, #144	; 0x90
     cd4:	4e9f3000 	cdpmi	0, 9, cr3, cr15, cr0, {0}
     cd8:	58000090 	stmdapl	r0, {r4, r7}
     cdc:	01000090 	swpeq	r0, r0, [r0]	; <UNPREDICTABLE>
     ce0:	90585500 	subsls	r5, r8, r0, lsl #10
     ce4:	90b60000 	adcsls	r0, r6, r0
     ce8:	00030000 	andeq	r0, r3, r0
     cec:	9c9f7872 	ldcls	8, cr7, [pc], {114}	; 0x72
     cf0:	a6000091 			; <UNDEFINED> instruction: 0xa6000091
     cf4:	01000091 	swpeq	r0, r1, [r0]	; <UNPREDICTABLE>
     cf8:	91a65200 			; <UNDEFINED> instruction: 0x91a65200
     cfc:	91b00000 	movsls	r0, r0
     d00:	00010000 	andeq	r0, r1, r0
     d04:	00000055 	andeq	r0, r0, r5, asr r0
     d08:	00000000 	andeq	r0, r0, r0
     d0c:	0087a800 	addeq	sl, r7, r0, lsl #16
     d10:	0087aa00 	addeq	sl, r7, r0, lsl #20
     d14:	50000100 	andpl	r0, r0, r0, lsl #2
     d18:	000087aa 	andeq	r8, r0, sl, lsr #15
     d1c:	000092ea 	andeq	r9, r0, sl, ror #5
     d20:	ac910004 	ldcge	0, cr0, [r1], {4}
     d24:	92ea7fb4 	rscls	r7, sl, #180, 30	; 0x2d0
     d28:	92f00000 	rscsls	r0, r0, #0
     d2c:	00010000 	andeq	r0, r1, r0
     d30:	0092f054 	addseq	pc, r2, r4, asr r0	; <UNPREDICTABLE>
     d34:	00930000 	addseq	r0, r3, r0
     d38:	91000400 	tstls	r0, r0, lsl #8
     d3c:	007fb4ac 	rsbseq	fp, pc, ip, lsr #9
     d40:	00000000 	andeq	r0, r0, r0
     d44:	3e000000 	cdpcc	0, 0, cr0, cr0, cr0, {0}
     d48:	a2000088 	andge	r0, r0, #136	; 0x88
     d4c:	03000092 	movweq	r0, #146	; 0x92
     d50:	9f3c0800 	svcls	0x003c0800
     d54:	000092c2 	andeq	r9, r0, r2, asr #5
     d58:	000092d8 	ldrdeq	r9, [r0], -r8
     d5c:	3c080003 	stccc	0, cr0, [r8], {3}
     d60:	0000009f 	muleq	r0, pc, r0	; <UNPREDICTABLE>
     d64:	00000000 	andeq	r0, r0, r0
     d68:	00900800 	addseq	r0, r0, r0, lsl #16
     d6c:	00903400 	addseq	r3, r0, r0, lsl #8
     d70:	30000200 	andcc	r0, r0, r0, lsl #4
     d74:	0090349f 	umullseq	r3, r0, pc, r4	; <UNPREDICTABLE>
     d78:	00920e00 	addseq	r0, r2, r0, lsl #28
     d7c:	91000400 	tstls	r0, r0, lsl #8
     d80:	167fb4a0 	ldrbtne	fp, [pc], -r0, lsr #9
     d84:	a2000092 	andge	r0, r0, #146	; 0x92
     d88:	04000092 	streq	r0, [r0], #-146	; 0x92
     d8c:	b4a09100 	strtlt	r9, [r0], #256	; 0x100
     d90:	0092c27f 	addseq	ip, r2, pc, ror r2
     d94:	0092d800 	addseq	sp, r2, r0, lsl #16
     d98:	91000400 	tstls	r0, r0, lsl #8
     d9c:	007fb4a0 	rsbseq	fp, pc, r0, lsr #9
     da0:	00000000 	andeq	r0, r0, r0
     da4:	82000000 	andhi	r0, r0, #0
     da8:	a2000088 	andge	r0, r0, #136	; 0x88
     dac:	03000092 	movweq	r0, #146	; 0x92
     db0:	9f800800 	svcls	0x00800800
     db4:	000092c2 	andeq	r9, r0, r2, asr #5
     db8:	000092d8 	ldrdeq	r9, [r0], -r8
     dbc:	80080003 	andhi	r0, r8, r3
     dc0:	0000009f 	muleq	r0, pc, r0	; <UNPREDICTABLE>
     dc4:	00000000 	andeq	r0, r0, r0
     dc8:	00888200 	addeq	r8, r8, r0, lsl #4
     dcc:	0092a200 	addseq	sl, r2, r0, lsl #4
     dd0:	40000200 	andmi	r0, r0, r0, lsl #4
     dd4:	0092c29f 	umullseq	ip, r2, pc, r2	; <UNPREDICTABLE>
     dd8:	0092d800 	addseq	sp, r2, r0, lsl #16
     ddc:	40000200 	andmi	r0, r0, r0, lsl #4
     de0:	0000009f 	muleq	r0, pc, r0	; <UNPREDICTABLE>
     de4:	00000000 	andeq	r0, r0, r0
     de8:	00888200 	addeq	r8, r8, r0, lsl #4
     dec:	0092a200 	addseq	sl, r2, r0, lsl #4
     df0:	08000300 	stmdaeq	r0, {r8, r9}
     df4:	92c29f3c 	sbcls	r9, r2, #60, 30	; 0xf0
     df8:	92d80000 	sbcsls	r0, r8, #0
     dfc:	00030000 	andeq	r0, r3, r0
     e00:	009f3c08 	addseq	r3, pc, r8, lsl #24
     e04:	00000000 	andeq	r0, r0, r0
     e08:	82000000 	andhi	r0, r0, #0
     e0c:	34000088 	strcc	r0, [r0], #-136	; 0x88
     e10:	01000090 	swpeq	r0, r0, [r0]	; <UNPREDICTABLE>
     e14:	90345b00 	eorsls	r5, r4, r0, lsl #22
     e18:	92a20000 	adcls	r0, r2, #0
     e1c:	00050000 	andeq	r0, r5, r0
     e20:	7fb59891 	svcvc	0x00b59891
     e24:	0092c29f 	umullseq	ip, r2, pc, r2	; <UNPREDICTABLE>
     e28:	0092d800 	addseq	sp, r2, r0, lsl #16
     e2c:	91000500 	tstls	r0, r0, lsl #10
     e30:	9f7fb598 	svcls	0x007fb598
	...
     e3c:	00008882 	andeq	r8, r0, r2, lsl #17
     e40:	00008946 	andeq	r8, r0, r6, asr #18
     e44:	98910005 	ldmls	r1, {r0, r2}
     e48:	469f7fb7 			; <UNDEFINED> instruction: 0x469f7fb7
     e4c:	5e000089 	cdppl	0, 0, cr0, cr0, cr9, {4}
     e50:	01000089 	smlabbeq	r0, r9, r0, r0
     e54:	895e5200 	ldmdbhi	lr, {r9, ip, lr}^
     e58:	8a4e0000 	bhi	1380e60 <__bss_end__+0x136ebc8>
     e5c:	00010000 	andeq	r0, r1, r0
     e60:	008a4e51 	addeq	r4, sl, r1, asr lr
     e64:	008ad200 	addeq	sp, sl, r0, lsl #4
     e68:	91000500 	tstls	r0, r0, lsl #10
     e6c:	9f7fb798 	svcls	0x007fb798
     e70:	00008ad2 	ldrdeq	r8, [r0], -r2
     e74:	00008b06 	andeq	r8, r0, r6, lsl #22
     e78:	06540001 	ldrbeq	r0, [r4], -r1
     e7c:	9c00008b 	stcls	0, cr0, [r0], {139}	; 0x8b
     e80:	0500008b 	streq	r0, [r0, #-139]	; 0x8b
     e84:	b7989100 	ldrlt	r9, [r8, r0, lsl #2]
     e88:	8b9c9f7f 	blhi	fe728c8c <__bss_end__+0xfe7169f4>
     e8c:	8c100000 	ldchi	0, cr0, [r0], {-0}
     e90:	00010000 	andeq	r0, r1, r0
     e94:	008c105a 	addeq	r1, ip, sl, asr r0
     e98:	0092a200 	addseq	sl, r2, r0, lsl #4
     e9c:	91000500 	tstls	r0, r0, lsl #10
     ea0:	9f7fb798 	svcls	0x007fb798
     ea4:	000092c2 	andeq	r9, r0, r2, asr #5
     ea8:	000092d8 	ldrdeq	r9, [r0], -r8
     eac:	98910005 	ldmls	r1, {r0, r2}
     eb0:	009f7fb7 			; <UNDEFINED> instruction: 0x009f7fb7
     eb4:	00000000 	andeq	r0, r0, r0
     eb8:	40000000 	andmi	r0, r0, r0
     ebc:	aa000089 	bge	10e8 <shift+0x10e8>
     ec0:	02000089 	andeq	r0, r0, #137	; 0x89
     ec4:	aa9f3000 	bge	fe7ccecc <__bss_end__+0xfe7bac34>
     ec8:	b2000089 	andlt	r0, r0, #137	; 0x89
     ecc:	02000089 	andeq	r0, r0, #137	; 0x89
     ed0:	b29f3100 	addslt	r3, pc, #0, 2
     ed4:	c2000089 	andgt	r0, r0, #137	; 0x89
     ed8:	02000089 	andeq	r0, r0, #137	; 0x89
     edc:	c29f3200 	addsgt	r3, pc, #0, 4
     ee0:	ee000089 	cdp	0, 0, cr0, cr0, cr9, {4}
     ee4:	02000089 	andeq	r0, r0, #137	; 0x89
     ee8:	ee9f3300 	cdp	3, 9, cr3, cr15, cr0, {0}
     eec:	fe000089 	cdp2	0, 0, cr0, cr0, cr9, {4}
     ef0:	02000089 	andeq	r0, r0, #137	; 0x89
     ef4:	fe9f3800 	cdp2	8, 9, cr3, cr15, cr0, {0}
     ef8:	02000089 	andeq	r0, r0, #137	; 0x89
     efc:	0200008a 	andeq	r0, r0, #138	; 0x8a
     f00:	029f3900 	addseq	r3, pc, #0, 18
     f04:	1a00008a 	bne	1134 <shift+0x1134>
     f08:	0200008a 	andeq	r0, r0, #138	; 0x8a
     f0c:	1a9f3b00 	bne	fe7cfb14 <__bss_end__+0xfe7bd87c>
     f10:	4200008a 	andmi	r0, r0, #138	; 0x8a
     f14:	0200008a 	andeq	r0, r0, #138	; 0x8a
     f18:	429f3c00 	addsmi	r3, pc, #0, 24
     f1c:	4600008a 	strmi	r0, [r0], -sl, lsl #1
     f20:	0200008a 	andeq	r0, r0, #138	; 0x8a
     f24:	469f3d00 	ldrmi	r3, [pc], r0, lsl #26
     f28:	4a00008a 	bmi	1158 <shift+0x1158>
     f2c:	0200008a 	andeq	r0, r0, #138	; 0x8a
     f30:	4a9f3e00 	bmi	fe7d0738 <__bss_end__+0xfe7be4a0>
     f34:	4e00008a 	cdpmi	0, 0, cr0, cr0, cr10, {4}
     f38:	0200008a 	andeq	r0, r0, #138	; 0x8a
     f3c:	4e9f3f00 	cdpmi	15, 9, cr3, cr15, cr0, {0}
     f40:	a200008a 	andge	r0, r0, #138	; 0x8a
     f44:	02000092 	andeq	r0, r0, #146	; 0x92
     f48:	c29f4000 	addsgt	r4, pc, #0
     f4c:	d8000092 	stmdale	r0, {r1, r4, r7}
     f50:	02000092 	andeq	r0, r0, #146	; 0x92
     f54:	009f4000 	addseq	r4, pc, r0
     f58:	00000000 	andeq	r0, r0, r0
     f5c:	82000000 	andhi	r0, r0, #0
     f60:	86000088 	strhi	r0, [r0], -r8, lsl #1
     f64:	02000088 	andeq	r0, r0, #136	; 0x88
     f68:	869f3000 	ldrhi	r3, [pc], r0
     f6c:	ac000088 	stcge	0, cr0, [r0], {136}	; 0x88
     f70:	01000088 	smlabbeq	r0, r8, r0, r0
     f74:	88ac5600 	stmiahi	ip!, {r9, sl, ip, lr}
     f78:	88cc0000 	stmiahi	ip, {}^	; <UNPREDICTABLE>
     f7c:	00030000 	andeq	r0, r3, r0
     f80:	cc9f0176 	ldfgts	f0, [pc], {118}	; 0x76
     f84:	ec000088 	stc	0, cr0, [r0], {136}	; 0x88
     f88:	03000088 	movweq	r0, #136	; 0x88
     f8c:	9f027600 	svcls	0x00027600
     f90:	000088ec 	andeq	r8, r0, ip, ror #17
     f94:	000088f6 	strdeq	r8, [r0], -r6
     f98:	03760003 	cmneq	r6, #3
     f9c:	0088f69f 	umulleq	pc, r8, pc, r6	; <UNPREDICTABLE>
     fa0:	00891c00 	addeq	r1, r9, r0, lsl #24
     fa4:	53000100 	movwpl	r0, #256	; 0x100
	...
     fb0:	00008b1e 	andeq	r8, r0, lr, lsl fp
     fb4:	00008b3e 	andeq	r8, r0, lr, lsr fp
     fb8:	3e540001 	cdpcc	0, 5, cr0, cr4, cr1, {0}
     fbc:	5800008b 	stmdapl	r0, {r0, r1, r3, r7}
     fc0:	0300008b 	movweq	r0, #139	; 0x8b
     fc4:	9f017400 	svcls	0x00017400
     fc8:	00008b58 	andeq	r8, r0, r8, asr fp
     fcc:	00008b70 	andeq	r8, r0, r0, ror fp
     fd0:	02740003 	rsbseq	r0, r4, #3
     fd4:	008b709f 	umulleq	r7, fp, pc, r0	; <UNPREDICTABLE>
     fd8:	008b8200 	addeq	r8, fp, r0, lsl #4
     fdc:	74000300 	strvc	r0, [r0], #-768	; 0x300
     fe0:	8b829f03 	blhi	fe0a8bf4 <__bss_end__+0xfe09695c>
     fe4:	8bc00000 	blhi	ff000fec <__bss_end__+0xfefeed54>
     fe8:	00010000 	andeq	r0, r1, r0
     fec:	008bc053 	addeq	ip, fp, r3, asr r0
     ff0:	008bdc00 	addeq	sp, fp, r0, lsl #24
     ff4:	77000900 	strvc	r0, [r0, -r0, lsl #18]
     ff8:	1c009100 	stfned	f1, [r0], {-0}
     ffc:	9f49e823 	svcls	0x0049e823
    1000:	00008bdc 	ldrdeq	r8, [r0], -ip
    1004:	00008c26 	andeq	r8, r0, r6, lsr #24
    1008:	00770009 	rsbseq	r0, r7, r9
    100c:	231c0091 	tstcs	ip, #145	; 0x91
    1010:	009f49e9 	addseq	r4, pc, r9, ror #19
    1014:	00000000 	andeq	r0, r0, r0
    1018:	14000000 	strne	r0, [r0], #-0
    101c:	a200008b 	andge	r0, r0, #139	; 0x8b
    1020:	08000092 	stmdaeq	r0, {r1, r4, r7}
    1024:	93589000 	cmpls	r8, #0
    1028:	93599004 	cmpls	r9, #4
    102c:	0092c204 	addseq	ip, r2, r4, lsl #4
    1030:	0092d800 	addseq	sp, r2, r0, lsl #16
    1034:	90000800 	andls	r0, r0, r0, lsl #16
    1038:	90049358 	andls	r9, r4, r8, asr r3
    103c:	00049359 	andeq	r9, r4, r9, asr r3
    1040:	00000000 	andeq	r0, r0, r0
    1044:	c0000000 	andgt	r0, r0, r0
    1048:	d800008a 	stmdale	r0, {r1, r3, r7}
    104c:	0100008a 	smlabbeq	r0, sl, r0, r0
    1050:	00005100 	andeq	r5, r0, r0, lsl #2
    1054:	00000000 	andeq	r0, r0, r0
    1058:	8c600000 	stclhi	0, cr0, [r0], #-0
    105c:	92a20000 	adcls	r0, r2, #0
    1060:	00040000 	andeq	r0, r4, r0
    1064:	9f04000a 	svcls	0x0004000a
    1068:	000092c2 	andeq	r9, r0, r2, asr #5
    106c:	000092d8 	ldrdeq	r9, [r0], -r8
    1070:	000a0004 	andeq	r0, sl, r4
    1074:	00009f04 	andeq	r9, r0, r4, lsl #30
    1078:	00000000 	andeq	r0, r0, r0
    107c:	8c600000 	stclhi	0, cr0, [r0], #-0
    1080:	92a20000 	adcls	r0, r2, #0
    1084:	00030000 	andeq	r0, r3, r0
    1088:	c29f8008 	addsgt	r8, pc, #8
    108c:	d8000092 	stmdale	r0, {r1, r4, r7}
    1090:	03000092 	movweq	r0, #146	; 0x92
    1094:	9f800800 	svcls	0x00800800
	...
    10a0:	00008c60 	andeq	r8, r0, r0, ror #24
    10a4:	000092a2 	andeq	r9, r0, r2, lsr #5
    10a8:	9f400002 	svcls	0x00400002
    10ac:	000092c2 	andeq	r9, r0, r2, asr #5
    10b0:	000092d8 	ldrdeq	r9, [r0], -r8
    10b4:	9f400002 	svcls	0x00400002
	...
    10c0:	00008c60 	andeq	r8, r0, r0, ror #24
    10c4:	00009024 	andeq	r9, r0, r4, lsr #32
    10c8:	9c91000a 	ldcls	0, cr0, [r1], {10}
    10cc:	0a067fb4 	beq	1a0fa4 <__bss_end__+0x18ed0c>
    10d0:	9f1c0ffc 	svcls	0x001c0ffc
    10d4:	00009024 	andeq	r9, r0, r4, lsr #32
    10d8:	00009034 	andeq	r9, r0, r4, lsr r0
    10dc:	34580001 	ldrbcc	r0, [r8], #-1
    10e0:	a2000090 	andge	r0, r0, #144	; 0x90
    10e4:	05000092 	streq	r0, [r0, #-146]	; 0x92
    10e8:	bf989100 	svclt	0x00989100
    10ec:	92c29f7f 	sbcls	r9, r2, #508	; 0x1fc
    10f0:	92d80000 	sbcsls	r0, r8, #0
    10f4:	00050000 	andeq	r0, r5, r0
    10f8:	7fbf9891 	svcvc	0x00bf9891
    10fc:	0000009f 	muleq	r0, pc, r0	; <UNPREDICTABLE>
    1100:	00000000 	andeq	r0, r0, r0
    1104:	008c6000 	addeq	r6, ip, r0
    1108:	008fcc00 	addeq	ip, pc, r0, lsl #24
    110c:	91000500 	tstls	r0, r0, lsl #10
    1110:	9f7fb4b8 	svcls	0x007fb4b8
    1114:	00008fcc 	andeq	r8, r0, ip, asr #31
    1118:	00008fd7 	ldrdeq	r8, [r0], -r7
    111c:	d7530001 	ldrble	r0, [r3, -r1]
    1120:	a200008f 	andge	r0, r0, #143	; 0x8f
    1124:	05000092 	streq	r0, [r0, #-146]	; 0x92
    1128:	b4b89100 	ldrtlt	r9, [r8], #256	; 0x100
    112c:	92c29f7f 	sbcls	r9, r2, #508	; 0x1fc
    1130:	92d80000 	sbcsls	r0, r8, #0
    1134:	00050000 	andeq	r0, r5, r0
    1138:	7fb4b891 	svcvc	0x00b4b891
    113c:	0000009f 	muleq	r0, pc, r0	; <UNPREDICTABLE>
    1140:	00000000 	andeq	r0, r0, r0
    1144:	008c6000 	addeq	r6, ip, r0
    1148:	008e6400 	addeq	r6, lr, r0, lsl #8
    114c:	52000100 	andpl	r0, r0, #0, 2
    1150:	00008e64 	andeq	r8, r0, r4, ror #28
    1154:	00008e71 	andeq	r8, r0, r1, ror lr
    1158:	94030005 	strls	r0, [r3], #-5
    115c:	00000122 	andeq	r0, r0, r2, lsr #2
    1160:	00000000 	andeq	r0, r0, r0
    1164:	60000000 	andvs	r0, r0, r0
    1168:	6800008c 	stmdavs	r0, {r2, r3, r7}
    116c:	0200008c 	andeq	r0, r0, #140	; 0x8c
    1170:	009f3000 	addseq	r3, pc, r0
    1174:	00000000 	andeq	r0, r0, r0
    1178:	68000000 	stmdavs	r0, {}	; <UNPREDICTABLE>
    117c:	7400008c 	strvc	r0, [r0], #-140	; 0x8c
    1180:	0200008c 	andeq	r0, r0, #140	; 0x8c
    1184:	749f3000 	ldrvc	r3, [pc], #0	; 118c <shift+0x118c>
    1188:	7600008c 	strvc	r0, [r0], -ip, lsl #1
    118c:	0100008c 	smlabbeq	r0, ip, r0, r0
    1190:	8e3c5000 	cdphi	0, 3, cr5, cr12, cr0, {0}
    1194:	8e680000 	cdphi	0, 6, cr0, cr8, cr0, {0}
    1198:	00010000 	andeq	r0, r1, r0
    119c:	00000050 	andeq	r0, r0, r0, asr r0
    11a0:	00000000 	andeq	r0, r0, r0
    11a4:	008c6800 	addeq	r6, ip, r0, lsl #16
    11a8:	008c7400 	addeq	r7, ip, r0, lsl #8
    11ac:	30000200 	andcc	r0, r0, r0, lsl #4
    11b0:	008c749f 	umulleq	r7, ip, pc, r4	; <UNPREDICTABLE>
    11b4:	008c7600 	addeq	r7, ip, r0, lsl #12
    11b8:	54000100 	strpl	r0, [r0], #-256	; 0x100
    11bc:	00008e3c 	andeq	r8, r0, ip, lsr lr
    11c0:	00008e5c 	andeq	r8, r0, ip, asr lr
    11c4:	00540001 	subseq	r0, r4, r1
    11c8:	00000000 	andeq	r0, r0, r0
    11cc:	68000000 	stmdavs	r0, {}	; <UNPREDICTABLE>
    11d0:	7400008c 	strvc	r0, [r0], #-140	; 0x8c
    11d4:	0200008c 	andeq	r0, r0, #140	; 0x8c
    11d8:	749f3000 	ldrvc	r3, [pc], #0	; 11e0 <shift+0x11e0>
    11dc:	7600008c 	strvc	r0, [r0], -ip, lsl #1
    11e0:	0100008c 	smlabbeq	r0, ip, r0, r0
    11e4:	8e365500 	cfabs32hi	mvfx5, mvfx6
    11e8:	8e660000 	cdphi	0, 6, cr0, cr6, cr0, {0}
    11ec:	00010000 	andeq	r0, r1, r0
    11f0:	008e6655 	addeq	r6, lr, r5, asr r6
    11f4:	008e7100 	addeq	r7, lr, r0, lsl #2
    11f8:	7e000200 	cdpvc	2, 0, cr0, cr0, cr0, {0}
	...
    1204:	008eb600 	addeq	fp, lr, r0, lsl #12
    1208:	008ebe00 	addeq	fp, lr, r0, lsl #28
    120c:	30000200 	andcc	r0, r0, r0, lsl #4
    1210:	008ebe9f 	umulleq	fp, lr, pc, lr	; <UNPREDICTABLE>
    1214:	008f1400 	addeq	r1, pc, r0, lsl #8
    1218:	52000100 	andpl	r0, r0, #0, 2
    121c:	00008f14 	andeq	r8, r0, r4, lsl pc
    1220:	00008f42 	andeq	r8, r0, r2, asr #30
    1224:	0073003b 	rsbseq	r0, r3, fp, lsr r0
    1228:	1c3c0806 	ldcne	8, cr0, [ip], #-24	; 0xffffffe8
    122c:	22007219 	andcs	r7, r0, #-1879048191	; 0x90000001
    1230:	08060473 	stmdaeq	r6, {r0, r1, r4, r5, r6, sl}
    1234:	22191c3c 	andscs	r1, r9, #60, 24	; 0x3c00
    1238:	08060873 	stmdaeq	r6, {r0, r1, r4, r5, r6, fp}
    123c:	22191c3c 	andscs	r1, r9, #60, 24	; 0x3c00
    1240:	08060c73 	stmdaeq	r6, {r0, r1, r4, r5, r6, sl, fp}
    1244:	22191c3c 	andscs	r1, r9, #60, 24	; 0x3c00
    1248:	08061073 	stmdaeq	r6, {r0, r1, r4, r5, r6, ip}
    124c:	22191c3c 	andscs	r1, r9, #60, 24	; 0x3c00
    1250:	08061473 	stmdaeq	r6, {r0, r1, r4, r5, r6, sl, ip}
    1254:	22191c3c 	andscs	r1, r9, #60, 24	; 0x3c00
    1258:	08061873 	stmdaeq	r6, {r0, r1, r4, r5, r6, fp, ip}
    125c:	22191c3c 	andscs	r1, r9, #60, 24	; 0x3c00
    1260:	008f429f 	umulleq	r4, pc, pc, r2	; <UNPREDICTABLE>
    1264:	008f4400 	addeq	r4, pc, r0, lsl #8
    1268:	73003b00 	movwvc	r3, #2816	; 0xb00
    126c:	3c080660 	stccc	6, cr0, [r8], {96}	; 0x60
    1270:	0072191c 	rsbseq	r1, r2, ip, lsl r9
    1274:	06647322 	strbteq	r7, [r4], -r2, lsr #6
    1278:	191c3c08 	ldmdbne	ip, {r3, sl, fp, ip, sp}
    127c:	06687322 	strbteq	r7, [r8], -r2, lsr #6
    1280:	191c3c08 	ldmdbne	ip, {r3, sl, fp, ip, sp}
    1284:	066c7322 	strbteq	r7, [ip], -r2, lsr #6
    1288:	191c3c08 	ldmdbne	ip, {r3, sl, fp, ip, sp}
    128c:	06707322 	ldrbteq	r7, [r0], -r2, lsr #6
    1290:	191c3c08 	ldmdbne	ip, {r3, sl, fp, ip, sp}
    1294:	06747322 	ldrbteq	r7, [r4], -r2, lsr #6
    1298:	191c3c08 	ldmdbne	ip, {r3, sl, fp, ip, sp}
    129c:	06787322 	ldrbteq	r7, [r8], -r2, lsr #6
    12a0:	191c3c08 	ldmdbne	ip, {r3, sl, fp, ip, sp}
    12a4:	8f449f22 	svchi	0x00449f22
    12a8:	8f820000 	svchi	0x00820000
    12ac:	00010000 	andeq	r0, r1, r0
    12b0:	008f8252 	addeq	r8, pc, r2, asr r2	; <UNPREDICTABLE>
    12b4:	008f8500 	addeq	r8, pc, r0, lsl #10
    12b8:	7d000200 	sfmvc	f0, 4, [r0, #-0]
	...
    12c4:	00903400 	addseq	r3, r0, r0, lsl #8
    12c8:	00904e00 	addseq	r4, r0, r0, lsl #28
    12cc:	30000200 	andcc	r0, r0, r0, lsl #4
    12d0:	00904e9f 	umullseq	r4, r0, pc, lr	; <UNPREDICTABLE>
    12d4:	0090ae00 	addseq	sl, r0, r0, lsl #28
    12d8:	57000100 	strpl	r0, [r0, -r0, lsl #2]
    12dc:	000090ae 	andeq	r9, r0, lr, lsr #1
    12e0:	000090b6 	strheq	r9, [r0], -r6
    12e4:	0078000e 	rsbseq	r0, r8, lr
    12e8:	06220074 			; <UNDEFINED> instruction: 0x06220074
    12ec:	191c3c08 	ldmdbne	ip, {r3, sl, fp, ip, sp}
    12f0:	9f220077 	svcls	0x00220077
    12f4:	00009190 	muleq	r0, r0, r1
    12f8:	000091b4 			; <UNDEFINED> instruction: 0x000091b4
    12fc:	b4570001 	ldrblt	r0, [r7], #-1
    1300:	d8000091 	stmdale	r0, {r0, r4, r7}
    1304:	01000091 	swpeq	r0, r1, [r0]	; <UNPREDICTABLE>
    1308:	00005200 	andeq	r5, r0, r0, lsl #4
    130c:	00000000 	andeq	r0, r0, r0
    1310:	90340000 	eorsls	r0, r4, r0
    1314:	904e0000 	subls	r0, lr, r0
    1318:	00020000 	andeq	r0, r2, r0
    131c:	904e9f30 	subls	r9, lr, r0, lsr pc
    1320:	90b60000 	adcsls	r0, r6, r0
    1324:	00010000 	andeq	r0, r1, r0
    1328:	00919c53 	addseq	r9, r1, r3, asr ip
    132c:	00921500 	addseq	r1, r2, r0, lsl #10
    1330:	53000100 	movwpl	r0, #256	; 0x100
	...
    133c:	00009248 	andeq	r9, r0, r8, asr #4
    1340:	00009250 	andeq	r9, r0, r0, asr r2
    1344:	c8910005 	ldmgt	r1, {r0, r2}
    1348:	509f7fb4 			; <UNDEFINED> instruction: 0x509f7fb4
    134c:	59000092 	stmdbpl	r0, {r1, r4, r7}
    1350:	01000092 	swpeq	r0, r2, [r0]	; <UNPREDICTABLE>
    1354:	92595000 	subsls	r5, r9, #0
    1358:	92a20000 	adcls	r0, r2, #0
    135c:	00050000 	andeq	r0, r5, r0
    1360:	7fb4c891 	svcvc	0x00b4c891
    1364:	0092c29f 	umullseq	ip, r2, pc, r2	; <UNPREDICTABLE>
    1368:	0092d800 	addseq	sp, r2, r0, lsl #16
    136c:	91000500 	tstls	r0, r0, lsl #10
    1370:	9f7fb4c8 	svcls	0x007fb4c8
	...
    137c:	0000926a 	andeq	r9, r0, sl, ror #4
    1380:	00009272 	andeq	r9, r0, r2, ror r2
    1384:	f0910005 			; <UNDEFINED> instruction: 0xf0910005
    1388:	729f7fb4 	addsvc	r7, pc, #180, 30	; 0x2d0
    138c:	7b000092 	blvc	15dc <shift+0x15dc>
    1390:	01000092 	swpeq	r0, r2, [r0]	; <UNPREDICTABLE>
    1394:	927b5000 	rsbsls	r5, fp, #0
    1398:	92a20000 	adcls	r0, r2, #0
    139c:	00050000 	andeq	r0, r5, r0
    13a0:	7fb4f091 	svcvc	0x00b4f091
    13a4:	0092c29f 	umullseq	ip, r2, pc, r2	; <UNPREDICTABLE>
    13a8:	0092d800 	addseq	sp, r2, r0, lsl #16
    13ac:	91000500 	tstls	r0, r0, lsl #10
    13b0:	9f7fb4f0 	svcls	0x007fb4f0
	...

Disassembly of section .debug_ranges:

00000000 <.debug_ranges>:
   0:	0000962c 	andeq	r9, r0, ip, lsr #12
   4:	0000962e 	andeq	r9, r0, lr, lsr #12
   8:	0000963c 	andeq	r9, r0, ip, lsr r6
   c:	00009726 	andeq	r9, r0, r6, lsr #14
  10:	00009806 	andeq	r9, r0, r6, lsl #16
  14:	0000980a 	andeq	r9, r0, sl, lsl #16
	...
  20:	00009910 	andeq	r9, r0, r0, lsl r9
  24:	00009912 	andeq	r9, r0, r2, lsl r9
  28:	0000991e 	andeq	r9, r0, lr, lsl r9
  2c:	000099d2 	ldrdeq	r9, [r0], -r2
  30:	00009ac4 	andeq	r9, r0, r4, asr #21
  34:	00009ac8 	andeq	r9, r0, r8, asr #21
	...
  40:	00008812 	andeq	r8, r0, r2, lsl r8
  44:	00008816 	andeq	r8, r0, r6, lsl r8
  48:	00008848 	andeq	r8, r0, r8, asr #16
  4c:	0000884c 	andeq	r8, r0, ip, asr #16
  50:	00008884 	andeq	r8, r0, r4, lsl #17
  54:	00008a4e 	andeq	r8, r0, lr, asr #20
	...
  60:	00008812 	andeq	r8, r0, r2, lsl r8
  64:	00008816 	andeq	r8, r0, r6, lsl r8
  68:	00008848 	andeq	r8, r0, r8, asr #16
  6c:	0000884c 	andeq	r8, r0, ip, asr #16
  70:	00008884 	andeq	r8, r0, r4, lsl #17
  74:	00008940 	andeq	r8, r0, r0, asr #18
	...
  80:	0000881e 	andeq	r8, r0, lr, lsl r8
  84:	00008826 	andeq	r8, r0, r6, lsr #16
  88:	00008a4e 	andeq	r8, r0, lr, asr #20
  8c:	00008bde 	ldrdeq	r8, [r0], -lr
	...
  98:	00008eaa 	andeq	r8, r0, sl, lsr #29
  9c:	00008eae 	andeq	r8, r0, lr, lsr #29
  a0:	00008eb6 			; <UNDEFINED> instruction: 0x00008eb6
  a4:	00008f6a 	andeq	r8, r0, sl, ror #30
  a8:	00008f6c 	andeq	r8, r0, ip, ror #30
  ac:	00008f86 	andeq	r8, r0, r6, lsl #31
	...
  b8:	00008f92 	muleq	r0, r2, pc	; <UNPREDICTABLE>
  bc:	00008f96 	muleq	r0, r6, pc	; <UNPREDICTABLE>
  c0:	00008f9a 	muleq	r0, sl, pc	; <UNPREDICTABLE>
  c4:	00008fb8 			; <UNDEFINED> instruction: 0x00008fb8
	...
  d0:	0000902e 	andeq	r9, r0, lr, lsr #32
  d4:	000091f6 	strdeq	r9, [r0], -r6
  d8:	000091fa 	strdeq	r9, [r0], -sl
  dc:	000091fe 	strdeq	r9, [r0], -lr
  e0:	00009202 	andeq	r9, r0, r2, lsl #4
  e4:	00009216 	andeq	r9, r0, r6, lsl r2
	...
  f0:	000093e0 	andeq	r9, r0, r0, ror #7
  f4:	00009c72 	andeq	r9, r0, r2, ror ip
  f8:	00008748 	andeq	r8, r0, r8, asr #14
  fc:	00008782 	andeq	r8, r0, r2, lsl #15
 100:	00008738 	andeq	r8, r0, r8, lsr r7
 104:	00008746 	andeq	r8, r0, r6, asr #14
 108:	00008784 	andeq	r8, r0, r4, lsl #15
 10c:	00009300 	andeq	r9, r0, r0, lsl #6
	...
